(dp1
c__builtin__
frozenset
p2
((lp3
(I2
I1
tp4
atRp5
(dp6
S'down'
p7
c__builtin__
set
p8
((lp9
g5
ag2
((ltRp10
atRp11
sS'max'
p12
g8
((lp13
g5
atRp14
sS'up'
p15
g8
((lp16
g5
atRp17
ssg10
(dp18
g7
g8
((lp19
g10
atRp20
sg12
g8
((lp21
g5
ag2
((lp22
(I1
I2
tp23
atRp24
atRp25
sg15
g8
((lp26
g5
ag10
ag24
atRp27
ssg24
(dp28
g7
g8
((lp29
g10
ag24
atRp30
sg12
g8
((lp31
g24
atRp32
sg15
g8
((lp33
g24
atRp34
ss.