(dp1
c__builtin__
frozenset
p2
((lp3
(I1
I3
tp4
a(I2
I3
tp5
atRp6
(dp7
S'down'
p8
c__builtin__
set
p9
((lp10
g6
ag2
((lp11
g5
atRp12
ag2
((ltRp13
ag2
((lp14
g4
atRp15
atRp16
sS'max'
p17
g9
((lp18
g2
((lp19
(I1
I3
tp20
a(I2
I3
tp21
a(I2
I1
tp22
atRp23
ag2
((lp24
(I1
I2
tp25
ag4
ag5
atRp26
atRp27
sS'up'
p28
g9
((lp29
g6
ag26
ag23
atRp30
ssg12
(dp31
g8
g9
((lp32
g12
ag13
atRp33
sg17
g9
((lp34
g2
((lp35
(I3
I1
tp36
a(I2
I3
tp37
a(I2
I1
tp38
atRp39
ag26
ag23
atRp40
sg28
g9
((lp41
g6
ag12
ag23
ag39
ag26
ag2
((lp42
g21
ag22
atRp43
atRp44
ssg2
((lp45
(I3
I2
tp46
a(I3
I1
tp47
a(I2
I1
tp48
atRp49
(dp50
g8
g9
((lp51
g49
ag2
((lp52
g36
ag38
atRp53
ag2
((lp54
(I3
I2
tp55
a(I3
I1
tp56
atRp57
ag13
ag2
((lp58
g36
atRp59
ag2
((lp60
g22
atRp61
ag2
((lp62
(I3
I2
tp63
atRp64
atRp65
sg17
g9
((lp66
g49
atRp67
sg28
g9
((lp68
g49
atRp69
ssg15
(dp70
g8
g9
((lp71
g13
ag15
atRp72
sg17
g9
((lp73
g2
((lp74
(I1
I2
tp75
ag63
a(I1
I3
tp76
atRp77
ag26
ag23
atRp78
sg28
g9
((lp79
g6
ag15
ag77
ag23
ag26
ag2
((lp80
g25
ag4
atRp81
atRp82
ssg2
((lp83
g25
atRp84
(dp85
g8
g9
((lp86
g13
ag84
atRp87
sg17
g9
((lp88
g77
ag26
ag2
((lp89
(I1
I2
tp90
ag55
ag56
atRp91
atRp92
sg28
g9
((lp93
g77
ag84
ag26
ag2
((lp94
g75
ag63
atRp95
ag91
ag81
atRp96
ssg53
(dp97
g8
g9
((lp98
g61
ag13
ag59
ag53
atRp99
sg17
g9
((lp100
g39
ag49
atRp101
sg28
g9
((lp102
g39
ag49
ag53
atRp103
ssg23
(dp104
g8
g9
((lp105
g6
ag12
ag15
ag23
ag13
ag61
ag43
atRp106
sg17
g9
((lp107
g23
atRp108
sg28
g9
((lp109
g23
atRp110
ssg64
(dp111
g8
g9
((lp112
g64
ag13
atRp113
sg17
g9
((lp114
g77
ag49
ag91
atRp115
sg28
g9
((lp116
g77
ag49
ag57
ag95
ag91
ag64
atRp117
ssg57
(dp118
g8
g9
((lp119
g64
ag57
ag13
ag59
atRp120
sg17
g9
((lp121
g91
ag49
atRp122
sg28
g9
((lp123
g91
ag57
ag49
atRp124
ssg13
(dp125
g8
g9
((lp126
g13
atRp127
sg17
g9
((lp128
g77
ag49
ag23
ag39
ag26
ag91
atRp129
sg28
g9
((lp130
g53
ag6
ag12
ag49
ag15
ag84
ag77
ag23
ag64
ag57
ag13
ag59
ag61
ag39
ag26
ag95
ag91
ag43
ag81
atRp131
ssg59
(dp132
g8
g9
((lp133
g13
ag59
atRp134
sg17
g9
((lp135
g39
ag49
ag91
atRp136
sg28
g9
((lp137
g49
ag53
ag57
ag59
ag39
ag91
atRp138
ssg61
(dp139
g8
g9
((lp140
g61
ag13
atRp141
sg17
g9
((lp142
g39
ag49
ag23
atRp143
sg28
g9
((lp144
g49
ag53
ag23
ag61
ag39
ag43
atRp145
ssg39
(dp146
g8
g9
((lp147
g12
ag53
ag13
ag59
ag61
ag39
ag43
atRp148
sg17
g9
((lp149
g39
atRp150
sg28
g9
((lp151
g39
atRp152
ssg26
(dp153
g8
g9
((lp154
g6
ag12
ag15
ag84
ag13
ag26
ag81
atRp155
sg17
g9
((lp156
g26
atRp157
sg28
g9
((lp158
g26
atRp159
ssg95
(dp160
g8
g9
((lp161
g95
ag64
ag13
ag84
atRp162
sg17
g9
((lp163
g77
ag91
atRp164
sg28
g9
((lp165
g77
ag95
ag91
atRp166
ssg77
(dp167
g8
g9
((lp168
g77
ag15
ag84
ag13
ag95
ag64
ag81
atRp169
sg17
g9
((lp170
g77
atRp171
sg28
g9
((lp172
g77
atRp173
ssg91
(dp174
g8
g9
((lp175
g84
ag57
ag13
ag59
ag95
ag91
ag64
atRp176
sg17
g9
((lp177
g91
atRp178
sg28
g9
((lp179
g91
atRp180
ssg43
(dp181
g8
g9
((lp182
g61
ag13
ag12
ag43
atRp183
sg17
g9
((lp184
g39
ag23
atRp185
sg28
g9
((lp186
g39
ag43
ag23
atRp187
ssg81
(dp188
g8
g9
((lp189
g13
ag15
ag84
ag81
atRp190
sg17
g9
((lp191
g77
ag26
atRp192
sg28
g9
((lp193
g77
ag26
ag81
atRp194
ss.