(dp1
c__builtin__
frozenset
p2
((lp3
(I4
I2
tp4
a(I1
I3
tp5
a(I4
I3
tp6
atRp7
(dp8
S'down'
p9
c__builtin__
set
p10
((lp11
g7
ag2
((lp12
(I4
I2
tp13
a(I1
I3
tp14
atRp15
ag2
((lp16
(I1
I3
tp17
atRp18
ag2
((ltRp19
ag2
((lp20
g4
ag6
atRp21
ag2
((lp22
g13
atRp23
ag2
((lp24
(I1
I3
tp25
a(I4
I3
tp26
atRp27
ag2
((lp28
g26
atRp29
atRp30
sS'max'
p31
g10
((lp32
g2
((lp33
(I1
I2
tp34
ag5
a(I1
I4
tp35
a(I2
I3
tp36
ag6
ag4
atRp37
ag2
((lp38
(I1
I2
tp39
a(I3
I2
tp40
a(I1
I3
tp41
a(I4
I3
tp42
a(I4
I2
tp43
a(I4
I1
tp44
atRp45
ag2
((lp46
(I1
I2
tp47
a(I1
I3
tp48
a(I2
I3
tp49
a(I4
I3
tp50
a(I4
I2
tp51
a(I4
I1
tp52
atRp53
ag2
((lp54
(I1
I3
tp55
a(I2
I1
tp56
a(I2
I3
tp57
a(I4
I3
tp58
a(I4
I2
tp59
a(I4
I1
tp60
atRp61
ag2
((lp62
(I1
I2
tp63
a(I3
I2
tp64
a(I1
I3
tp65
a(I1
I4
tp66
a(I4
I3
tp67
a(I4
I2
tp68
atRp69
atRp70
sS'up'
p71
g10
((lp72
g7
ag37
ag2
((lp73
g34
ag4
ag5
ag6
ag35
atRp74
ag2
((lp75
g63
ag68
ag64
ag65
ag67
atRp76
ag2
((lp77
g51
ag48
ag52
ag50
atRp78
ag69
ag2
((lp79
g34
ag4
ag5
ag6
atRp80
ag45
ag2
((lp81
g34
ag4
ag5
ag36
ag6
atRp82
ag2
((lp83
g4
ag5
ag36
ag6
atRp84
ag53
ag61
ag2
((lp85
g51
ag52
ag48
ag49
ag50
atRp86
ag2
((lp87
g47
ag51
ag48
ag52
ag50
atRp88
atRp89
ssg2
((lp90
(I1
I2
tp91
a(I3
I2
tp92
a(I3
I1
tp93
a(I3
I4
tp94
a(I1
I4
tp95
atRp96
(dp97
g9
g10
((lp98
g96
ag2
((lp99
(I3
I4
tp100
atRp101
ag19
ag2
((lp102
(I1
I4
tp103
atRp104
ag2
((lp105
(I1
I2
tp106
a(I3
I2
tp107
atRp108
ag2
((lp109
g106
ag107
a(I3
I4
tp110
atRp111
ag2
((lp112
g91
ag92
ag93
ag94
atRp113
ag2
((lp114
g92
ag93
ag94
ag95
atRp115
ag2
((lp116
g106
ag107
ag110
a(I1
I4
tp117
atRp118
ag2
((lp119
g100
ag103
atRp120
ag2
((lp121
g107
ag110
atRp122
ag2
((lp123
(I1
I2
tp124
ag100
ag103
atRp125
ag2
((lp126
g92
ag93
atRp127
ag2
((lp128
(I3
I1
tp129
atRp130
ag2
((lp131
g129
a(I3
I4
tp132
atRp133
ag2
((lp134
g124
atRp135
ag2
((lp136
g129
ag132
a(I1
I4
tp137
atRp138
ag2
((lp139
g91
ag92
ag93
atRp140
ag2
((lp141
g106
ag107
ag117
atRp142
ag2
((lp143
g92
ag93
ag94
atRp144
ag2
((lp145
g107
ag110
ag117
atRp146
ag2
((lp147
g107
ag117
atRp148
ag2
((lp149
g124
ag100
atRp150
ag2
((lp151
g124
ag103
atRp152
ag2
((lp153
g107
atRp154
atRp155
sg31
g10
((lp156
g2
((lp157
g91
ag92
ag93
ag95
ag94
a(I2
I4
tp158
atRp159
ag2
((lp160
(I1
I2
tp161
a(I3
I2
tp162
a(I3
I1
tp163
a(I1
I4
tp164
a(I4
I2
tp165
a(I3
I4
tp166
atRp167
atRp168
sg71
g10
((lp169
g159
ag96
ag167
atRp170
ssg2
((lp171
(I3
I1
tp172
a(I2
I1
tp173
a(I2
I3
tp174
a(I4
I3
tp175
a(I4
I2
tp176
a(I4
I1
tp177
atRp178
(dp179
g9
g10
((lp180
g2
((lp181
(I3
I1
tp182
a(I4
I1
tp183
atRp184
ag2
((lp185
(I2
I3
tp186
atRp187
ag178
ag2
((lp188
(I4
I3
tp189
a(I2
I1
tp190
atRp191
ag2
((lp192
g129
a(I2
I1
tp193
atRp194
ag2
((lp195
(I4
I2
tp196
a(I3
I1
tp197
a(I4
I1
tp198
atRp199
ag2
((lp200
(I4
I2
tp201
a(I3
I1
tp202
a(I4
I1
tp203
a(I2
I1
tp204
atRp205
ag2
((lp206
g129
a(I2
I3
tp207
ag193
atRp208
ag2
((lp209
(I2
I3
tp210
ag183
atRp211
ag2
((lp212
g165
ag163
atRp213
ag2
((lp214
g59
ag60
ag57
ag58
ag56
atRp215
ag2
((lp216
(I3
I1
tp217
a(I4
I1
tp218
a(I4
I3
tp219
atRp220
ag2
((lp221
g4
ag36
ag6
atRp222
ag2
((lp223
g183
a(I2
I1
tp224
atRp225
ag2
((lp226
g210
ag182
ag183
ag224
atRp227
ag130
ag2
((lp228
g201
ag203
ag204
atRp229
ag2
((lp230
(I2
I3
tp231
ag26
atRp232
ag2
((lp233
g182
ag183
ag224
atRp234
ag2
((lp235
g217
ag218
ag219
a(I2
I1
tp236
atRp237
ag2
((lp238
(I4
I1
tp239
a(I2
I3
tp240
a(I4
I3
tp241
a(I2
I1
tp242
atRp243
ag2
((lp244
g59
ag60
ag58
ag56
atRp245
ag2
((lp246
g239
ag241
ag242
atRp247
ag19
ag2
((lp248
g183
atRp249
ag2
((lp250
g239
ag241
atRp251
ag21
ag2
((lp252
g210
ag183
ag224
atRp253
ag23
ag2
((lp254
(I2
I1
tp255
atRp256
ag2
((lp257
g51
ag52
ag50
atRp258
ag2
((lp259
(I2
I3
tp260
ag255
atRp261
ag2
((lp262
g51
ag52
ag49
ag50
atRp263
ag2
((lp264
g176
ag172
ag177
ag175
ag173
atRp265
ag2
((lp266
g218
ag217
a(I2
I3
tp267
ag219
ag236
atRp268
ag2
((lp269
g176
ag172
ag177
ag175
atRp270
ag2
((lp271
g239
ag240
ag241
atRp272
ag29
ag2
((lp273
g196
ag198
atRp274
ag2
((lp275
(I2
I3
tp276
ag189
ag190
atRp277
atRp278
sg31
g10
((lp279
g178
atRp280
sg71
g10
((lp281
g178
atRp282
ssg2
((lp283
g129
ag132
ag193
atRp284
(dp285
g9
g10
((lp286
g133
ag2
((lp287
(I3
I4
tp288
ag255
atRp289
ag194
ag284
ag101
ag19
ag130
ag256
atRp290
sg31
g10
((lp291
g2
((lp292
g129
ag137
ag207
ag193
ag132
a(I2
I4
tp293
atRp294
ag2
((lp295
(I3
I2
tp296
a(I3
I4
tp297
ag202
ag204
ag201
ag203
atRp298
ag2
((lp299
g183
ag182
ag224
ag210
a(I3
I4
tp300
a(I2
I4
tp301
atRp302
ag2
((lp303
(I3
I2
tp304
a(I3
I4
tp305
a(I3
I1
tp306
a(I2
I1
tp307
a(I4
I1
tp308
a(I2
I4
tp309
atRp310
ag2
((lp311
(I3
I2
tp312
a(I3
I1
tp313
a(I1
I4
tp314
a(I2
I1
tp315
a(I3
I4
tp316
a(I2
I4
tp317
atRp318
atRp319
sg71
g10
((lp320
g318
ag284
ag310
ag2
((lp321
g300
ag182
ag183
ag224
atRp322
ag298
ag2
((lp323
g312
ag313
ag316
ag317
ag315
atRp324
ag294
ag302
ag2
((lp325
g308
ag304
ag306
ag305
ag307
atRp326
ag2
((lp327
g300
ag182
ag183
ag301
ag224
atRp328
ag2
((lp329
g129
ag132
ag293
ag193
atRp330
ag2
((lp331
g129
ag132
ag137
ag193
ag293
atRp332
ag2
((lp333
g132
ag129
ag207
ag293
ag193
atRp334
ag2
((lp335
g312
ag313
ag316
ag315
atRp336
atRp337
ssg205
(dp338
g9
g10
((lp339
g184
ag225
ag194
ag19
ag249
ag205
ag130
ag23
ag256
ag229
ag234
ag213
ag274
ag199
atRp340
sg31
g10
((lp341
g298
ag2
((lp342
(I3
I2
tp343
a(I3
I1
tp344
a(I2
I1
tp345
a(I4
I3
tp346
a(I4
I2
tp347
a(I4
I1
tp348
atRp349
ag178
atRp350
sg71
g10
((lp351
g265
ag2
((lp352
g201
ag296
ag202
ag203
ag204
atRp353
ag349
ag205
ag298
ag178
atRp354
ssg2
((lp355
(I1
I2
tp356
ag26
atRp357
(dp358
g9
g10
((lp359
g357
ag29
ag19
ag135
atRp360
sg31
g10
((lp361
g37
ag2
((lp362
(I1
I2
tp363
a(I3
I2
tp364
a(I3
I1
tp365
a(I4
I3
tp366
a(I4
I2
tp367
a(I4
I1
tp368
atRp369
ag69
ag2
((lp370
g356
ag25
a(I1
I4
tp371
ag231
ag26
a(I2
I4
tp372
atRp373
ag45
ag53
atRp374
sg71
g10
((lp375
g37
ag80
ag74
ag2
((lp376
g34
ag4
ag6
atRp377
ag76
ag369
ag69
ag2
((lp378
g356
ag25
ag26
atRp379
ag357
ag2
((lp380
g63
ag68
ag64
ag67
atRp381
ag2
((lp382
g356
ag25
ag231
ag26
atRp383
ag2
((lp384
g39
ag43
ag40
ag44
ag42
atRp385
ag373
ag82
ag45
ag53
ag2
((lp386
g47
ag51
ag52
ag50
atRp387
ag2
((lp388
g356
ag25
ag231
ag26
ag371
atRp389
ag88
ag2
((lp390
g356
ag25
ag26
ag371
atRp391
atRp392
ssg2
((lp393
g182
ag183
ag301
ag224
atRp394
(dp395
g9
g10
((lp396
g184
ag225
ag2
((lp397
g183
ag301
ag224
atRp398
ag2
((lp399
(I2
I4
tp400
ag255
atRp401
ag249
ag194
ag19
ag130
ag256
ag234
ag394
ag2
((lp402
g129
ag293
ag193
atRp403
ag2
((lp404
(I2
I4
tp405
atRp406
ag2
((lp407
g129
ag293
atRp408
atRp409
sg31
g10
((lp410
g2
((lp411
g217
ag236
ag267
ag219
ag218
a(I2
I4
tp412
atRp413
ag302
ag310
atRp414
sg71
g10
((lp415
g310
ag413
ag302
ag328
ag394
ag2
((lp416
g210
ag182
ag183
ag301
ag224
atRp417
atRp418
ssg330
(dp419
g9
g10
((lp420
g133
ag289
ag2
((lp421
g288
ag400
ag255
atRp422
ag284
ag101
ag194
ag19
ag130
ag2
((lp423
g100
ag405
atRp424
ag256
ag401
ag330
ag403
ag406
ag408
ag2
((lp425
g129
ag132
ag293
atRp426
atRp427
sg31
g10
((lp428
g294
ag302
ag310
ag318
atRp429
sg71
g10
((lp430
g318
ag310
ag324
ag294
ag302
ag328
ag330
ag332
ag334
atRp431
ssg215
(dp432
g9
g10
((lp433
g187
ag191
ag19
ag211
ag215
ag222
ag225
ag229
ag232
ag243
ag245
ag247
ag249
ag251
ag21
ag253
ag23
ag256
ag258
ag261
ag263
ag272
ag29
ag274
ag277
atRp434
sg31
g10
((lp435
g61
ag178
atRp436
sg71
g10
((lp437
g61
ag215
ag178
atRp438
ssg61
(dp439
g9
g10
((lp440
g7
ag2
((lp441
g25
ag231
ag26
atRp442
ag187
ag84
ag191
ag19
ag211
ag2
((lp443
(I1
I3
tp444
ag239
ag241
atRp445
ag215
ag61
ag15
ag2
((lp446
g17
ag186
atRp447
ag222
ag225
ag18
ag2
((lp448
(I1
I3
tp449
ag260
ag255
atRp450
ag229
ag232
ag78
ag243
ag245
ag247
ag249
ag251
ag21
ag253
ag23
ag256
ag2
((lp451
(I1
I3
tp452
ag276
ag189
ag190
atRp453
ag2
((lp454
g239
ag444
ag240
ag241
atRp455
ag27
ag2
((lp456
g239
ag444
ag240
ag241
ag242
atRp457
ag258
ag261
ag263
ag272
ag29
ag86
ag274
ag277
atRp458
sg31
g10
((lp459
g61
atRp460
sg71
g10
((lp461
g61
atRp462
ssg391
(dp463
g9
g10
((lp464
g104
ag2
((lp465
g25
ag26
ag371
atRp466
ag18
ag135
ag2
((lp467
g124
ag17
ag103
atRp468
ag19
ag379
ag357
ag29
ag27
ag152
ag391
ag2
((lp469
g124
ag17
atRp470
ag2
((lp471
g17
ag103
atRp472
atRp473
sg31
g10
((lp474
g37
ag373
ag69
atRp475
sg71
g10
((lp476
g37
ag74
ag69
ag373
ag389
ag391
atRp477
ssg37
(dp478
g9
g10
((lp479
g7
ag442
ag187
ag84
ag377
ag19
ag357
ag2
((lp480
g186
ag103
atRp481
ag391
ag37
ag447
ag222
ag18
ag2
((lp482
(I1
I2
tp483
ag13
ag14
a(I1
I4
tp484
atRp485
ag2
((lp486
g124
ag17
ag186
ag103
atRp487
ag389
ag383
ag2
((lp488
g124
ag17
ag186
atRp489
ag232
ag82
ag470
ag472
ag80
ag15
ag74
ag468
ag135
ag21
ag2
((lp490
g483
ag13
ag14
atRp491
ag23
ag29
ag27
ag2
((lp492
g25
ag231
ag26
ag371
atRp493
ag379
ag466
ag104
ag2
((lp494
g483
ag13
atRp495
ag2
((lp496
g17
ag186
ag103
atRp497
ag2
((lp498
g483
ag13
ag484
atRp499
ag152
atRp500
sg31
g10
((lp501
g37
atRp502
sg71
g10
((lp503
g37
atRp504
ssg220
(dp505
g9
g10
((lp506
g220
ag184
ag19
ag249
ag251
ag130
ag29
atRp507
sg31
g10
((lp508
g413
ag369
ag349
ag178
atRp509
sg71
g10
((lp510
g265
ag220
ag178
ag268
ag2
((lp511
g367
ag364
ag365
ag368
ag366
atRp512
ag349
ag369
ag413
ag270
ag237
atRp513
ssg120
(dp514
g9
g10
((lp515
g104
ag19
ag101
ag120
atRp516
sg31
g10
((lp517
g2
((lp518
g449
a(I1
I4
tp519
ag260
ag255
ag288
ag400
atRp520
ag167
ag318
ag2
((lp521
g106
ag107
a(I1
I3
tp522
ag117
ag110
a(I2
I4
tp523
atRp524
ag159
ag2
((lp525
g124
ag17
ag103
ag186
ag100
ag405
atRp526
ag294
ag2
((lp527
g483
a(I3
I2
tp528
ag14
ag484
ag13
a(I3
I4
tp529
atRp530
atRp531
sg71
g10
((lp532
g96
ag2
((lp533
g100
ag186
ag405
ag103
atRp534
ag2
((lp535
g92
ag93
ag94
ag158
ag95
atRp536
ag115
ag118
ag120
ag2
((lp537
g288
ag260
ag519
ag255
ag400
atRp538
ag125
ag2
((lp539
g106
ag107
ag110
ag523
ag117
atRp540
ag2
((lp541
g124
ag17
ag100
ag103
atRp542
ag2
((lp543
g288
ag519
ag255
ag400
atRp544
ag526
ag2
((lp545
g106
ag107
ag522
ag110
ag117
atRp546
ag332
ag520
ag2
((lp547
g17
ag100
ag405
ag103
atRp548
ag524
ag138
ag2
((lp549
g100
ag17
ag186
ag405
ag103
atRp550
ag2
((lp551
g129
ag132
ag293
ag137
atRp552
ag167
ag146
ag318
ag2
((lp553
g100
ag405
ag103
atRp554
ag2
((lp555
g124
ag100
ag405
ag103
atRp556
ag2
((lp557
g17
ag100
ag103
atRp558
ag159
ag2
((lp559
g107
ag110
ag523
ag117
atRp560
ag2
((lp561
g124
ag17
ag100
ag405
ag103
atRp562
ag294
ag2
((lp563
g483
ag13
ag528
ag529
ag484
atRp564
ag530
atRp565
ssg18
(dp566
g9
g10
((lp567
g19
ag18
atRp568
sg31
g10
((lp569
g37
ag520
ag2
((lp570
g452
a(I1
I4
tp571
ag276
ag190
ag189
a(I2
I4
tp572
atRp573
ag524
ag530
ag69
ag2
((lp574
g444
ag242
ag240
ag241
ag239
a(I2
I4
tp575
atRp576
ag373
ag526
ag45
ag53
ag61
atRp577
sg71
g10
((lp578
g7
ag442
ag84
ag383
ag69
ag487
ag445
ag2
((lp579
g124
ag17
ag186
ag405
ag103
atRp580
ag453
ag61
ag391
ag37
ag447
ag2
((lp581
g483
ag13
ag528
ag14
atRp582
ag18
ag542
ag485
ag2
((lp583
g124
ag17
ag405
ag103
atRp584
ag379
ag76
ag489
ag2
((lp585
g25
ag231
ag26
ag371
ag372
atRp586
ag82
ag2
((lp587
g17
ag186
ag405
ag103
atRp588
ag546
ag2
((lp589
g17
ag405
ag103
atRp590
ag2
((lp591
g106
ag107
ag522
ag117
atRp592
ag78
ag470
ag472
ag80
ag15
ag74
ag526
ag524
ag491
ag2
((lp593
g25
ag231
ag372
ag26
atRp594
ag2
((lp595
g483
ag13
ag528
ag14
ag484
atRp596
ag2
((lp597
g17
ag405
atRp598
ag455
ag550
ag27
ag457
ag53
ag493
ag2
((lp599
g449
ag260
ag519
ag255
ag400
atRp600
ag389
ag2
((lp601
g17
ag186
ag405
atRp602
ag466
ag548
ag2
((lp603
g106
ag107
ag522
atRp604
ag573
ag520
ag45
ag576
ag497
ag468
ag558
ag562
ag2
((lp605
g452
ag276
ag189
ag190
ag572
atRp606
ag450
ag2
((lp607
g449
ag260
ag400
ag255
atRp608
ag373
ag86
ag530
ag88
atRp609
ssg538
(dp610
g9
g10
((lp611
g187
ag534
ag101
ag19
ag104
ag406
ag481
ag120
ag538
ag401
ag544
ag2
((lp612
g260
ag519
ag255
ag400
atRp613
ag2
((lp614
g186
ag405
ag103
atRp615
ag2
((lp616
g288
ag260
ag400
ag255
atRp617
ag256
ag261
ag2
((lp618
g519
ag255
ag400
atRp619
ag289
ag554
ag2
((lp620
g405
ag103
atRp621
ag422
ag424
ag2
((lp622
g186
ag405
atRp623
ag2
((lp624
g100
ag186
ag405
atRp625
ag2
((lp626
g260
ag400
ag255
atRp627
atRp628
sg31
g10
((lp629
g294
ag520
atRp630
sg71
g10
((lp631
g294
ag520
ag538
atRp632
ssg485
(dp633
g9
g10
((lp634
g15
ag18
ag135
ag495
ag485
ag468
ag19
ag491
ag23
ag104
ag152
ag499
ag470
ag472
atRp635
sg31
g10
((lp636
g37
ag530
ag69
atRp637
sg71
g10
((lp638
g37
ag596
ag74
ag485
ag69
ag530
atRp639
ssg377
(dp640
g9
g10
((lp641
g135
ag377
ag495
ag19
ag21
ag23
ag357
ag29
atRp642
sg31
g10
((lp643
g37
ag45
ag53
ag369
ag69
atRp644
sg71
g10
((lp645
g37
ag80
ag74
ag377
ag76
ag369
ag69
ag381
ag385
ag45
ag82
ag53
ag387
ag88
atRp646
ssg586
(dp647
g9
g10
((lp648
g442
ag187
ag2
((lp649
g231
ag372
ag26
atRp650
ag19
ag104
ag406
ag590
ag447
ag18
ag481
ag232
ag588
ag586
ag472
ag623
ag594
ag598
ag27
ag493
ag602
ag466
ag621
ag497
ag29
ag615
atRp651
sg31
g10
((lp652
g573
ag373
atRp653
sg71
g10
((lp654
g373
ag573
ag586
atRp655
ssg82
(dp656
g9
g10
((lp657
g7
ag442
ag187
ag84
ag377
ag19
ag357
ag15
ag447
ag222
ag18
ag489
ag232
ag82
ag470
ag80
ag383
ag135
ag21
ag491
ag23
ag27
ag379
ag495
ag29
atRp658
sg31
g10
((lp659
g37
ag53
atRp660
sg71
g10
((lp661
g37
ag53
ag82
atRp662
ssg336
(dp663
g9
g10
((lp664
g133
ag2
((lp665
g312
ag313
ag315
atRp666
ag289
ag194
ag122
ag284
ag101
ag127
ag19
ag130
ag256
ag154
ag144
ag336
atRp667
sg31
g10
((lp668
g298
ag310
ag318
atRp669
sg71
g10
((lp670
g318
ag310
ag324
ag326
ag298
ag336
atRp671
ssg2
((lp672
g165
ag162
ag163
atRp673
(dp674
g9
g10
((lp675
g673
ag127
ag19
ag130
ag23
ag2
((lp676
g13
ag528
atRp677
ag213
ag154
atRp678
sg31
g10
((lp679
g298
ag167
ag349
ag369
ag2
((lp680
(I1
I2
tp681
a(I3
I2
tp682
ag198
ag197
ag196
a(I3
I4
tp683
atRp684
atRp685
sg71
g10
((lp686
g2
((lp687
g165
ag162
ag163
ag166
atRp688
ag2
((lp689
g196
ag682
ag197
ag198
atRp690
ag684
ag167
ag2
((lp691
g161
ag165
ag162
ag163
atRp692
ag349
ag369
ag2
((lp693
g681
ag196
ag682
ag197
ag198
atRp694
ag2
((lp695
g161
ag165
ag162
ag163
ag166
atRp696
ag512
ag298
ag353
ag673
ag2
((lp697
g198
ag196
ag682
ag197
ag683
atRp698
atRp699
ssg470
(dp700
g9
g10
((lp701
g19
ag18
ag135
ag470
atRp702
sg31
g10
((lp703
g37
ag524
ag69
ag373
ag526
ag45
ag53
ag530
atRp704
sg71
g10
((lp705
g69
ag580
ag391
ag37
ag582
ag542
ag485
ag487
ag379
ag524
ag489
ag526
ag546
ag592
ag470
ag80
ag383
ag74
ag82
ag76
ag491
ag373
ag53
ag584
ag389
ag596
ag604
ag468
ag562
ag45
ag530
ag88
atRp706
ssg243
(dp707
g9
g10
((lp708
g243
ag187
ag247
ag272
ag191
ag277
ag249
ag251
ag253
ag256
ag232
ag211
ag29
ag225
ag19
ag261
atRp709
sg31
g10
((lp710
g576
ag61
ag178
ag413
atRp711
sg71
g10
((lp712
g243
ag268
ag178
ag576
ag2
((lp713
g239
ag240
ag241
ag242
ag575
atRp714
ag413
ag457
ag215
ag61
atRp715
ssg74
(dp716
g9
g10
((lp717
g7
ag377
ag19
ag357
ag391
ag15
ag18
ag485
ag470
ag472
ag80
ag74
ag468
ag135
ag21
ag491
ag23
ag29
ag27
ag379
ag466
ag104
ag495
ag499
ag152
atRp718
sg31
g10
((lp719
g37
ag69
atRp720
sg71
g10
((lp721
g37
ag74
ag69
atRp722
ssg604
(dp723
g9
g10
((lp724
g604
ag18
ag135
ag19
ag108
ag154
ag470
atRp725
sg31
g10
((lp726
g524
ag530
ag45
ag69
atRp727
sg71
g10
((lp728
g596
ag604
ag582
ag524
ag69
ag76
ag45
ag546
ag592
ag530
atRp729
ssg524
(dp730
g9
g10
((lp731
g101
ag19
ag104
ag108
ag111
ag406
ag590
ag118
ag120
ag18
ag556
ag122
ag584
ag125
ag562
ag540
ag542
ag546
ag2
((lp732
g124
ag405
ag103
atRp733
ag470
ag472
ag548
ag468
ag135
ag524
ag2
((lp734
g107
ag110
ag523
atRp735
ag598
ag142
ag146
ag604
ag148
ag592
ag554
ag621
ag558
ag424
ag560
ag150
ag152
ag154
atRp736
sg31
g10
((lp737
g524
atRp738
sg71
g10
((lp739
g524
atRp740
ssg249
(dp741
g9
g10
((lp742
g249
ag19
atRp743
sg31
g10
((lp744
g178
ag576
ag310
ag349
ag369
ag413
ag302
ag45
ag298
ag53
ag61
ag684
atRp745
sg71
g10
((lp746
g690
ag184
ag2
((lp747
g210
ag183
ag301
ag224
atRp748
ag178
ag417
ag349
ag205
ag211
ag2
((lp749
g308
ag304
ag306
ag305
atRp750
ag353
ag215
ag61
ag2
((lp751
g304
ag306
ag308
atRp752
ag684
ag2
((lp753
g304
ag306
ag308
ag307
atRp754
ag220
ag445
ag225
ag227
ag2
((lp755
g681
ag196
ag198
atRp756
ag310
ag302
ag229
ag234
ag237
ag78
ag199
ag2
((lp757
g196
ag682
ag198
atRp758
ag243
ag245
ag247
ag328
ag251
ag249
ag369
ag322
ag253
ag2
((lp759
g300
ag182
ag183
atRp760
ag413
ag694
ag385
ag45
ag326
ag394
ag457
ag53
ag714
ag258
ag263
ag265
ag268
ag270
ag2
((lp761
g43
ag40
ag44
ag42
atRp762
ag398
ag576
ag272
ag387
ag512
ag2
((lp763
g304
ag308
atRp764
ag88
ag455
ag298
ag86
ag274
ag698
ag2
((lp765
g681
ag196
ag682
ag198
atRp766
atRp767
ssg369
(dp768
g9
g10
((lp769
g690
ag184
ag2
((lp770
g483
ag13
ag528
atRp771
ag377
ag199
ag19
ag357
ag381
ag108
ag213
ag387
ag752
ag220
ag756
ag127
ag130
ag677
ag673
ag758
ag135
ag251
ag249
ag369
ag21
ag23
ag2
((lp772
g68
ag64
ag67
atRp773
ag694
ag385
ag140
ag258
ag270
ag762
ag495
ag764
ag692
ag512
ag29
ag274
ag154
ag766
atRp774
sg31
g10
((lp775
g369
atRp776
sg71
g10
((lp777
g369
atRp778
ssg23
(dp779
g9
g10
((lp780
g19
ag23
atRp781
sg31
g10
((lp782
g37
ag167
ag530
ag349
ag369
ag69
ag45
ag298
ag178
ag53
ag61
ag684
atRp783
sg71
g10
((lp784
g7
ag690
ag771
ag178
ag2
((lp785
g483
ag13
ag528
ag529
atRp786
ag377
ag349
ag205
ag530
ag69
ag80
ag381
ag696
ag766
ag213
ag84
ag215
ag61
ag684
ag37
ag222
ag167
ag485
ag756
ag76
ag677
ag229
ag82
ag673
ag199
ag758
ag688
ag245
ag74
ag353
ag15
ag369
ag21
ag491
ag23
ag773
ag694
ag385
ag45
ag582
ag53
ag258
ag596
ag263
ag265
ag564
ag270
ag762
ag495
ag78
ag387
ag512
ag499
ag88
ag298
ag2
((lp787
g483
ag13
ag528
ag484
atRp788
ag86
ag274
ag692
ag698
ag2
((lp789
g13
ag528
ag529
atRp790
atRp791
ssg598
(dp792
g9
g10
((lp793
g19
ag406
ag598
ag18
atRp794
sg31
g10
((lp795
g520
ag573
ag524
ag576
ag373
ag526
atRp796
sg71
g10
((lp797
g548
ag520
ag573
ag373
ag550
ag524
ag584
ag606
ag608
ag562
ag594
ag576
ag590
ag598
ag526
ag588
ag586
ag580
ag600
ag602
atRp798
ssg457
(dp799
g9
g10
((lp800
g442
ag187
ag191
ag19
ag211
ag445
ag453
ag447
ag225
ag18
ag450
ag232
ag243
ag247
ag249
ag251
ag253
ag256
ag455
ag27
ag457
ag261
ag272
ag29
ag277
atRp801
sg31
g10
((lp802
g576
ag61
atRp803
sg71
g10
((lp804
g576
ag457
ag61
atRp805
ssg600
(dp806
g9
g10
((lp807
g187
ag19
ag104
ag406
ag590
ag447
ag18
ag401
ag588
ag481
ag613
ag472
ag623
ag256
ag598
ag450
ag261
ag602
ag600
ag619
ag621
ag497
ag608
ag615
ag627
atRp808
sg31
g10
((lp809
g520
ag573
atRp810
sg71
g10
((lp811
g520
ag573
ag600
atRp812
ssg389
(dp813
g9
g10
((lp814
g442
ag187
ag19
ag104
ag481
ag391
ag447
ag18
ag487
ag389
ag489
ag232
ag470
ag472
ag383
ag468
ag135
ag29
ag27
ag493
ag379
ag466
ag357
ag497
ag152
atRp815
sg31
g10
((lp816
g37
ag373
atRp817
sg71
g10
((lp818
g37
ag373
ag389
atRp819
ssg263
(dp820
g9
g10
((lp821
g187
ag222
ag272
ag19
ag249
ag251
ag21
ag23
ag232
ag211
ag29
ag274
ag258
ag263
atRp822
sg31
g10
((lp823
g61
ag53
ag178
atRp824
sg71
g10
((lp825
g178
ag53
ag215
ag61
ag86
ag263
atRp826
ssg265
(dp827
g9
g10
((lp828
g184
ag191
ag194
ag199
ag205
ag213
ag220
ag225
ag130
ag229
ag234
ag237
ag245
ag247
ag19
ag249
ag251
ag21
ag23
ag256
ag258
ag265
ag270
ag29
ag274
atRp829
sg31
g10
((lp830
g349
ag178
atRp831
sg71
g10
((lp832
g265
ag349
ag178
atRp833
ssg619
(dp834
g9
g10
((lp835
g619
ag401
ag19
ag104
ag256
ag621
ag406
atRp836
sg31
g10
((lp837
g294
ag520
ag573
ag318
atRp838
sg71
g10
((lp839
g520
ag619
ag573
ag318
ag538
ag600
ag544
ag294
ag332
ag613
atRp840
ssg623
(dp841
g9
g10
((lp842
g187
ag406
ag19
ag623
atRp843
sg31
g10
((lp844
g520
ag573
ag576
ag413
ag302
ag373
ag526
ag294
atRp845
sg71
g10
((lp846
g520
ag748
ag534
ag580
ag2
((lp847
g276
ag189
ag190
ag572
atRp848
ag538
ag302
ag586
ag526
ag588
ag613
ag334
ag615
ag2
((lp849
g129
ag207
ag293
ag193
atRp850
ag617
ag714
ag413
ag608
ag373
ag550
ag650
ag600
ag602
ag594
ag573
ag576
ag606
ag623
ag294
ag625
ag417
ag627
atRp851
ssg495
(dp852
g9
g10
((lp853
g495
ag19
ag135
ag23
atRp854
sg31
g10
((lp855
g37
ag167
ag369
ag69
ag45
ag53
ag530
ag684
atRp856
sg71
g10
((lp857
g771
ag377
ag69
ag381
ag696
ag387
ag684
ag37
ag167
ag485
ag756
ag82
ag786
ag80
ag74
ag76
ag369
ag491
ag694
ag385
ag45
ag582
ag53
ag596
ag495
ag530
ag499
ag788
ag564
ag692
ag88
ag766
atRp858
ssg576
(dp859
g9
g10
((lp860
g442
ag187
ag748
ag191
ag650
ag19
ag211
ag445
ag406
ag447
ag453
ag225
ag18
ag401
ag232
ag243
ag247
ag249
ag623
ag251
ag253
ag714
ag594
ag29
ag598
ag455
ag27
ag457
ag261
ag602
ag848
ag256
ag398
ag576
ag606
ag272
ag450
ag608
ag277
ag627
atRp861
sg31
g10
((lp862
g576
atRp863
sg71
g10
((lp864
g576
atRp865
ssg497
(dp866
g9
g10
((lp867
g447
ag187
ag18
ag497
ag19
ag104
ag481
ag472
atRp868
sg31
g10
((lp869
g37
ag520
ag573
ag373
ag526
atRp870
sg71
g10
((lp871
g37
ag520
ag573
ag550
ag497
ag586
ag526
ag487
ag588
ag373
ag580
ag493
ag600
ag389
atRp872
ssg398
(dp873
g9
g10
((lp874
g225
ag398
ag401
ag249
ag19
ag256
ag406
atRp875
sg31
g10
((lp876
g576
ag413
ag302
ag310
atRp877
sg71
g10
((lp878
g748
ag398
ag576
ag310
ag714
ag413
ag302
ag328
ag394
ag417
atRp879
ssg150
(dp880
g9
g10
((lp881
g150
ag19
ag101
ag135
atRp882
sg31
g10
((lp883
g167
ag524
ag159
ag526
ag530
ag684
atRp884
sg71
g10
((lp885
g118
ag96
ag167
ag526
ag556
ag524
ag562
ag125
ag696
ag540
ag159
ag542
ag150
ag111
ag546
ag564
ag530
ag113
ag684
ag786
atRp886
ssg621
(dp887
g9
g10
((lp888
g104
ag621
ag406
ag19
atRp889
sg31
g10
((lp890
g520
ag573
ag318
ag524
ag159
ag373
ag526
ag294
atRp891
sg71
g10
((lp892
g534
ag536
ag580
ag590
ag538
ag600
ag540
ag586
ag544
ag526
ag588
ag733
ag332
ag613
ag615
ag520
ag524
ag373
ag550
ag552
ag584
ag548
ag619
ag573
ag318
ag554
ag621
ag556
ag159
ag560
ag562
ag294
atRp893
ssg294
(dp894
g9
g10
((lp895
g187
ag534
ag194
ag284
ag101
ag19
ag104
ag208
ag330
ag406
ag481
ag120
ag538
ag401
ag130
ag544
ag332
ag613
ag334
ag615
ag850
ag133
ag617
ag403
ag138
ag408
ag256
ag552
ag261
ag619
ag289
ag554
ag621
ag422
ag424
ag623
ag294
ag625
ag426
ag627
atRp896
sg31
g10
((lp897
g294
atRp898
sg71
g10
((lp899
g294
atRp900
ssg788
(dp901
g9
g10
((lp902
g148
ag771
ag135
ag495
ag142
ag19
ag23
ag104
ag677
ag108
ag152
ag788
ag499
ag154
atRp903
sg31
g10
((lp904
g530
ag167
ag69
atRp905
sg71
g10
((lp906
g596
ag167
ag69
ag788
ag564
ag530
atRp907
ssg615
(dp908
g9
g10
((lp909
g187
ag621
ag19
ag104
ag623
ag406
ag481
ag615
atRp910
sg31
g10
((lp911
g294
ag520
ag573
ag373
ag526
atRp912
sg71
g10
((lp913
g520
ag573
ag534
ag550
ag538
ag588
ag586
ag526
ag294
ag373
ag580
ag600
ag613
ag615
atRp914
ssg154
(dp915
g9
g10
((lp916
g19
ag154
atRp917
sg31
g10
((lp918
g167
ag318
ag524
ag310
ag349
ag369
ag69
ag159
ag45
ag298
ag530
ag684
atRp919
sg71
g10
((lp920
g690
ag96
ag771
ag786
ag564
ag349
ag530
ag69
ag536
ag381
ag696
ag108
ag111
ag582
ag752
ag684
ag754
ag118
ag140
ag167
ag122
ag127
ag310
ag540
ag76
ag677
ag546
ag666
ag115
ag673
ag758
ag688
ag596
ag353
ag524
ag735
ag369
ag324
ag773
ag694
ag385
ag45
ag326
ag750
ag142
ag144
ag336
ag146
ag604
ag148
ag592
ag762
ag318
ag764
ag692
ag512
ag113
ag159
ag560
ag2
((lp921
g92
ag93
ag94
ag158
atRp922
ag298
ag788
ag766
ag154
ag698
ag790
atRp923
ssg698
(dp924
g9
g10
((lp925
g690
ag184
ag199
ag19
ag213
ag752
ag122
ag127
ag130
ag677
ag673
ag101
ag758
ag688
ag133
ag249
ag23
ag750
ag760
ag144
ag764
ag274
ag154
ag698
ag790
atRp926
sg31
g10
((lp927
g298
ag684
atRp928
sg71
g10
((lp929
g298
ag684
ag698
atRp930
ssg790
(dp931
g9
g10
((lp932
g122
ag101
ag19
ag23
ag677
ag154
ag790
atRp933
sg31
g10
((lp934
g298
ag530
ag167
ag684
atRp935
sg71
g10
((lp936
g688
ag564
ag167
ag696
ag698
ag298
ag786
ag530
ag684
ag790
atRp937
ssg442
(dp938
g9
g10
((lp939
g442
ag187
ag18
ag447
ag19
ag232
ag27
ag29
atRp940
sg31
g10
((lp941
g37
ag573
ag576
ag373
ag53
ag61
atRp942
sg71
g10
((lp943
g37
ag442
ag573
ag453
ag84
ag383
ag576
ag606
ag373
ag86
ag594
ag586
ag455
ag82
ag457
ag53
ag493
ag61
ag389
atRp944
ssg771
(dp945
g9
g10
((lp946
g771
ag135
ag495
ag19
ag23
ag677
ag108
ag154
atRp947
sg31
g10
((lp948
g167
ag369
ag69
ag45
ag530
ag684
atRp949
sg71
g10
((lp950
g596
ag771
ag167
ag564
ag76
ag530
ag369
ag694
ag69
ag381
ag696
ag385
ag45
ag582
ag788
ag786
ag692
ag684
ag766
atRp951
ssg84
(dp952
g9
g10
((lp953
g7
ag442
ag187
ag222
ag84
ag18
ag447
ag15
ag19
ag21
ag23
ag232
ag27
ag29
atRp954
sg31
g10
((lp955
g37
ag53
ag61
atRp956
sg71
g10
((lp957
g37
ag84
ag82
ag53
ag61
ag86
atRp958
ssg191
(dp959
g9
g10
((lp960
g256
ag29
ag19
ag191
atRp961
sg31
g10
((lp962
g573
ag178
ag576
ag349
ag413
ag61
atRp963
sg71
g10
((lp964
g243
ag265
ag573
ag237
ag178
ag848
ag191
ag245
ag576
ag606
ag349
ag268
ag277
ag714
ag413
ag453
ag247
ag457
ag215
ag61
atRp965
ssg133
(dp966
g9
g10
((lp967
g133
ag101
ag19
ag130
atRp968
sg31
g10
((lp969
g167
ag318
ag310
ag159
ag298
ag302
ag294
ag684
atRp970
sg71
g10
((lp971
g96
ag284
ag536
ag696
ag330
ag113
ag684
ag115
ag167
ag310
ag302
ag332
ag334
ag688
ag133
ag138
ag322
ag760
ag324
ag298
ag326
ag552
ag750
ag144
ag336
ag318
ag159
ag922
ag426
ag328
ag294
ag698
atRp972
ssg199
(dp973
g9
g10
((lp974
g184
ag249
ag19
ag130
ag23
ag213
ag274
ag199
atRp975
sg31
g10
((lp976
g298
ag369
ag349
ag178
ag684
atRp977
sg71
g10
((lp978
g265
ag690
ag178
ag205
ag349
ag369
ag694
ag684
ag512
ag298
ag353
ag270
ag199
ag698
atRp979
ssg536
(dp980
g9
g10
((lp981
g101
ag19
ag104
ag406
ag115
ag120
ag122
ag127
ag130
ag133
ag138
ag735
ag408
ag552
ag144
ag146
ag536
ag148
ag554
ag621
ag424
ag560
ag922
ag154
ag426
atRp982
sg31
g10
((lp983
g159
ag318
atRp984
sg71
g10
((lp985
g536
ag159
ag318
atRp986
ssg381
(dp987
g9
g10
((lp988
g771
ag135
ag495
ag677
ag377
ag19
ag21
ag773
ag23
ag357
ag381
ag108
ag29
ag154
atRp989
sg31
g10
((lp990
g45
ag369
ag69
atRp991
sg71
g10
((lp992
g76
ag369
ag69
ag381
ag385
ag45
atRp993
ssg696
(dp994
g9
g10
((lp995
g771
ag101
ag19
ag696
ag108
ag111
ag213
ag113
ag122
ag127
ag130
ag677
ag673
ag786
ag688
ag133
ag135
ag23
ag140
ag144
ag495
ag154
ag150
ag692
ag790
atRp996
sg31
g10
((lp997
g167
ag684
atRp998
sg71
g10
((lp999
g696
ag167
ag684
atRp1000
ssg211
(dp1001
g9
g10
((lp1002
g249
ag19
ag187
ag211
atRp1003
sg31
g10
((lp1004
g178
ag576
ag413
ag302
ag53
ag61
atRp1005
sg71
g10
((lp1006
g243
ag268
ag748
ag178
ag227
ag576
ag272
ag253
ag714
ag413
ag302
ag455
ag211
ag457
ag53
ag215
ag61
ag86
ag417
ag263
atRp1007
ssg580
(dp1008
g9
g10
((lp1009
g187
ag19
ag104
ag580
ag406
ag590
ag447
ag18
ag481
ag489
ag588
ag733
ag470
ag472
ag487
ag468
ag135
ag623
ag598
ag584
ag602
ag621
ag497
ag152
ag615
atRp1010
sg31
g10
((lp1011
g373
ag526
atRp1012
sg71
g10
((lp1013
g580
ag373
ag526
atRp1014
ssg406
(dp1015
g9
g10
((lp1016
g406
ag19
atRp1017
sg31
g10
((lp1018
g520
ag159
ag573
ag318
ag524
ag310
ag413
ag576
ag302
ag373
ag526
ag294
atRp1019
sg71
g10
((lp1020
g850
ag748
ag310
ag650
ag536
ag552
ag534
ag584
ag330
ag580
ag406
ag590
ag422
ag848
ag538
ag401
ag594
ag540
ag302
ag586
ag544
ag526
ag588
ag922
ag733
ag332
ag613
ag334
ag615
ag413
ag617
ag403
ag524
ag735
ag408
ag714
ag324
ag608
ag598
ag550
ag625
ag394
ag600
ag602
ag548
ag619
ag573
ag554
ag520
ag318
ag398
ag576
ag621
ag556
ag424
ag159
ag560
ag562
ag606
ag426
ag328
ag623
ag294
ag373
ag417
ag627
atRp1021
ssg752
(dp1022
g9
g10
((lp1023
g184
ag764
ag249
ag127
ag19
ag130
ag154
ag752
atRp1024
sg31
g10
((lp1025
g298
ag310
ag349
ag369
ag684
atRp1026
sg71
g10
((lp1027
g690
ag353
ag310
ag369
ag349
ag512
ag694
ag684
ag326
ag298
ag750
ag752
ag698
ag754
atRp1028
ssg15
(dp1029
g9
g10
((lp1030
g15
ag19
ag18
ag23
atRp1031
sg31
g10
((lp1032
g37
ag530
ag69
ag45
ag53
ag61
atRp1033
sg71
g10
((lp1034
g7
ag37
ag74
ag485
ag78
ag15
ag530
ag491
ag80
ag76
ag596
ag45
ag69
ag82
ag582
ag84
ag53
ag61
ag86
ag88
atRp1035
ssg592
(dp1036
g9
g10
((lp1037
g604
ag148
ag18
ag135
ag142
ag468
ag19
ag104
ag108
ag152
ag592
ag154
ag470
ag472
atRp1038
sg31
g10
((lp1039
g524
ag530
ag69
atRp1040
sg71
g10
((lp1041
g596
ag524
ag69
ag546
ag592
ag530
atRp1042
ssg167
(dp1043
g9
g10
((lp1044
g96
ag771
ag101
ag19
ag104
ag696
ag108
ag111
ag140
ag213
ag113
ag115
ag118
ag120
ag122
ag125
ag127
ag130
ag677
ag673
ag786
ag688
ag133
ag135
ag138
ag23
ag167
ag142
ag144
ag146
ag148
ag495
ag692
ag499
ag150
ag152
ag788
ag564
ag154
ag790
atRp1045
sg31
g10
((lp1046
g167
atRp1047
sg71
g10
((lp1048
g167
atRp1049
ssg556
(dp1050
g9
g10
((lp1051
g733
ag120
ag135
ag556
ag621
ag125
ag554
ag19
ag424
ag104
ag150
ag152
ag406
ag101
atRp1052
sg31
g10
((lp1053
g524
ag159
ag526
atRp1054
sg71
g10
((lp1055
g556
ag524
ag540
ag159
ag562
ag526
atRp1056
ssg756
(dp1057
g9
g10
((lp1058
g135
ag495
ag756
ag249
ag19
ag23
ag274
atRp1059
sg31
g10
((lp1060
g45
ag53
ag369
ag684
atRp1061
sg71
g10
((lp1062
g756
ag369
ag694
ag385
ag45
ag88
ag53
ag387
ag684
ag766
atRp1063
ssg540
(dp1064
g9
g10
((lp1065
g101
ag19
ag104
ag108
ag111
ag406
ag118
ag120
ag556
ag122
ag125
ag540
ag733
ag135
ag735
ag142
ag146
ag148
ag554
ag621
ag424
ag560
ag150
ag152
ag154
atRp1066
sg31
g10
((lp1067
g524
ag159
atRp1068
sg71
g10
((lp1069
g524
ag159
ag540
atRp1070
ssg677
(dp1071
g9
g10
((lp1072
g677
ag19
ag154
ag23
atRp1073
sg31
g10
((lp1074
g167
ag349
ag369
ag69
ag45
ag298
ag530
ag684
atRp1075
sg71
g10
((lp1076
g690
ag771
ag786
ag349
ag69
ag381
ag696
ag684
ag167
ag677
ag673
ag758
ag688
ag353
ag76
ag369
ag773
ag694
ag385
ag45
ag582
ag596
ag564
ag762
ag530
ag512
ag298
ag788
ag790
ag692
ag698
ag766
atRp1077
ssg229
(dp1078
g9
g10
((lp1079
g225
ag249
ag19
ag23
ag256
ag229
ag274
atRp1080
sg31
g10
((lp1081
g298
ag61
ag349
ag178
atRp1082
sg71
g10
((lp1083
g265
ag245
ag178
ag349
ag205
ag229
ag298
ag353
ag215
ag61
atRp1084
ssg544
(dp1085
g9
g10
((lp1086
g619
ag120
ag422
ag401
ag101
ag554
ag19
ag424
ag104
ag256
ag544
ag621
ag289
ag406
atRp1087
sg31
g10
((lp1088
g294
ag520
ag318
atRp1089
sg71
g10
((lp1090
g520
ag318
ag538
ag544
ag294
ag332
atRp1091
ssg115
(dp1092
g9
g10
((lp1093
g146
ag133
ag148
ag120
ag122
ag138
ag101
ag127
ag19
ag130
ag104
ag154
ag144
ag115
atRp1094
sg31
g10
((lp1095
g159
ag167
ag318
atRp1096
sg71
g10
((lp1097
g96
ag167
ag159
ag318
ag536
ag115
atRp1098
ssg332
(dp1099
g9
g10
((lp1100
g194
ag284
ag101
ag19
ag104
ag330
ag406
ag120
ag422
ag401
ag130
ag544
ag332
ag133
ag403
ag138
ag408
ag256
ag552
ag619
ag289
ag554
ag621
ag424
ag426
atRp1101
sg31
g10
((lp1102
g294
ag318
atRp1103
sg71
g10
((lp1104
g294
ag332
ag318
atRp1105
ssg334
(dp1106
g9
g10
((lp1107
g187
ag194
ag284
ag101
ag19
ag208
ag330
ag406
ag422
ag401
ag130
ag334
ag850
ag133
ag617
ag403
ag408
ag256
ag261
ag289
ag424
ag623
ag625
ag426
ag627
atRp1108
sg31
g10
((lp1109
g294
ag302
atRp1110
sg71
g10
((lp1111
g294
ag302
ag334
atRp1112
ssg472
(dp1113
g9
g10
((lp1114
g104
ag19
ag18
ag472
atRp1115
sg31
g10
((lp1116
g37
ag520
ag573
ag524
ag69
ag373
ag526
ag530
atRp1117
sg71
g10
((lp1118
g69
ag580
ag590
ag391
ag37
ag485
ag600
ag542
ag586
ag526
ag588
ag546
ag592
ag472
ag520
ag596
ag74
ag468
ag524
ag373
ag550
ag493
ag584
ag389
ag466
ag548
ag573
ag497
ag558
ag562
ag487
ag530
atRp1119
ssg245
(dp1120
g9
g10
((lp1121
g245
ag258
ag247
ag191
ag19
ag249
ag251
ag21
ag23
ag256
ag229
ag29
ag225
ag274
atRp1122
sg31
g10
((lp1123
g61
ag349
ag178
atRp1124
sg71
g10
((lp1125
g265
ag245
ag178
ag349
ag215
ag61
atRp1126
ssg617
(dp1127
g9
g10
((lp1128
g187
ag617
ag289
ag422
ag401
ag101
ag19
ag424
ag256
ag623
ag625
ag406
ag261
ag627
atRp1129
sg31
g10
((lp1130
g294
ag520
ag302
atRp1131
sg71
g10
((lp1132
g520
ag617
ag538
ag302
ag294
ag334
atRp1133
ssg247
(dp1134
g9
g10
((lp1135
g247
ag191
ag251
ag249
ag19
ag256
ag29
ag225
atRp1136
sg31
g10
((lp1137
g576
ag61
ag349
ag178
ag413
atRp1138
sg71
g10
((lp1139
g243
ag265
ag237
ag178
ag245
ag576
ag349
ag268
ag714
ag413
ag247
ag457
ag215
ag61
atRp1140
ssg135
(dp1141
g9
g10
((lp1142
g19
ag135
atRp1143
sg31
g10
((lp1144
g37
ag167
ag524
ag369
ag69
ag159
ag373
ag526
ag45
ag53
ag530
ag684
atRp1145
sg71
g10
((lp1146
g96
ag771
ag377
ag69
ag379
ag357
ag381
ag696
ag584
ag111
ag140
ag580
ag387
ag45
ag113
ag684
ag391
ag37
ag159
ag167
ag556
ag485
ag756
ag125
ag562
ag540
ag76
ag383
ag489
ag82
ag546
ag108
ag733
ag470
ag786
ag80
ag118
ag74
ag526
ag135
ag524
ag369
ag491
ag694
ag385
ag373
ag582
ag53
ag142
ag389
ag596
ag604
ag592
ag495
ag530
ag468
ag499
ag542
ag150
ag487
ag152
ag788
ag564
ag692
ag88
ag766
atRp1147
ssg735
(dp1148
g9
g10
((lp1149
g122
ag101
ag735
ag19
ag424
ag406
ag154
atRp1150
sg31
g10
((lp1151
g524
ag159
ag310
ag318
atRp1152
sg71
g10
((lp1153
g536
ag159
ag318
ag524
ag735
ag310
ag540
ag324
ag560
ag922
atRp1154
ssg251
(dp1155
g9
g10
((lp1156
g29
ag19
ag249
ag251
atRp1157
sg31
g10
((lp1158
g178
ag576
ag349
ag369
ag413
ag45
ag53
ag61
atRp1159
sg71
g10
((lp1160
g178
ag349
ag445
ag215
ag61
ag220
ag387
ag237
ag78
ag243
ag245
ag247
ag369
ag251
ag714
ag413
ag385
ag45
ag455
ag457
ag53
ag258
ag263
ag265
ag268
ag270
ag762
ag576
ag512
ag272
ag86
ag88
atRp1161
ssg322
(dp1162
g9
g10
((lp1163
g133
ag225
ag194
ag284
ag249
ag19
ag322
ag760
ag184
ag130
ag256
ag234
ag289
ag101
atRp1164
sg31
g10
((lp1165
g298
ag302
ag310
atRp1166
sg71
g10
((lp1167
g310
ag322
ag302
ag326
ag328
ag298
atRp1168
ssg491
(dp1169
g9
g10
((lp1170
g15
ag18
ag135
ag495
ag19
ag491
ag23
ag470
atRp1171
sg31
g10
((lp1172
g37
ag530
ag53
ag45
ag69
atRp1173
sg71
g10
((lp1174
g37
ag80
ag74
ag485
ag491
ag76
ag596
ag45
ag69
ag82
ag582
ag53
ag530
ag88
atRp1175
ssg714
(dp1176
g9
g10
((lp1177
g187
ag748
ag191
ag19
ag211
ag406
ag225
ag848
ag401
ag232
ag243
ag247
ag249
ag251
ag253
ag714
ag256
ag650
ag261
ag398
ag272
ag623
ag29
ag277
ag627
atRp1178
sg31
g10
((lp1179
g576
ag413
atRp1180
sg71
g10
((lp1181
g576
ag413
ag714
atRp1182
ssg594
(dp1183
g9
g10
((lp1184
g442
ag187
ag18
ag623
ag447
ag650
ag19
ag594
ag598
ag27
ag29
ag232
ag406
ag602
atRp1185
sg31
g10
((lp1186
g576
ag573
ag373
atRp1187
sg71
g10
((lp1188
g573
ag576
ag606
ag594
ag373
ag586
atRp1189
ssg373
(dp1190
g9
g10
((lp1191
g442
ag187
ag487
ag650
ag19
ag357
ag580
ag406
ag481
ag391
ag447
ag18
ag590
ag379
ag489
ag586
ag588
ag232
ag733
ag470
ag615
ag383
ag468
ag135
ag623
ag594
ag29
ag373
ag27
ag493
ag584
ag389
ag602
ag466
ag104
ag497
ag621
ag152
ag598
ag472
atRp1192
sg31
g10
((lp1193
g373
atRp1194
sg71
g10
((lp1195
g373
atRp1196
ssg326
(dp1197
g9
g10
((lp1198
g184
ag194
ag284
ag101
ag19
ag752
ag754
ag225
ag122
ag127
ag130
ag133
ag234
ag249
ag322
ag760
ag256
ag326
ag750
ag144
ag336
ag666
ag289
ag764
ag154
atRp1199
sg31
g10
((lp1200
g298
ag310
atRp1201
sg71
g10
((lp1202
g298
ag310
ag326
atRp1203
ssg225
(dp1204
g9
g10
((lp1205
g256
ag19
ag249
ag225
atRp1206
sg31
g10
((lp1207
g178
ag576
ag349
ag310
ag413
ag302
ag298
ag61
atRp1208
sg71
g10
((lp1209
g748
ag178
ag349
ag205
ag353
ag215
ag61
ag754
ag225
ag227
ag310
ag302
ag229
ag237
ag243
ag245
ag247
ag234
ag322
ag253
ag714
ag413
ag326
ag394
ag457
ag265
ag268
ag398
ag576
ag328
ag298
ag417
atRp1210
ssg53
(dp1211
g9
g10
((lp1212
g7
ag442
ag187
ag84
ag377
ag19
ag357
ag211
ag445
ag387
ag15
ag447
ag222
ag18
ag756
ag489
ag232
ag82
ag78
ag470
ag80
ag383
ag135
ag249
ag251
ag21
ag491
ag23
ag455
ag27
ag53
ag258
ag379
ag263
ag495
ag272
ag29
ag86
ag274
ag88
atRp1213
sg31
g10
((lp1214
g53
atRp1215
sg71
g10
((lp1216
g53
atRp1217
ssg493
(dp1218
g9
g10
((lp1219
g442
ag187
ag18
ag447
ag497
ag19
ag104
ag466
ag232
ag27
ag29
ag493
ag481
ag472
atRp1220
sg31
g10
((lp1221
g37
ag573
ag373
atRp1222
sg71
g10
((lp1223
g37
ag573
ag373
ag586
ag493
ag389
atRp1224
ssg584
(dp1225
g9
g10
((lp1226
g733
ag18
ag135
ag621
ag468
ag19
ag104
ag598
ag152
ag590
ag406
ag584
ag470
ag472
atRp1227
sg31
g10
((lp1228
g524
ag373
ag526
atRp1229
sg71
g10
((lp1230
g524
ag562
ag373
ag526
ag580
ag584
atRp1231
ssg379
(dp1232
g9
g10
((lp1233
g18
ag135
ag19
ag470
ag357
ag27
ag29
ag379
atRp1234
sg31
g10
((lp1235
g37
ag45
ag53
ag373
ag69
atRp1236
sg71
g10
((lp1237
g37
ag80
ag74
ag383
ag76
ag69
ag379
ag373
ag82
ag45
ag53
ag389
ag88
ag391
atRp1238
ssg602
(dp1239
g9
g10
((lp1240
g447
ag187
ag18
ag19
ag598
ag623
ag406
ag602
atRp1241
sg31
g10
((lp1242
g576
ag520
ag573
ag373
ag526
atRp1243
sg71
g10
((lp1244
g520
ag573
ag550
ag576
ag606
ag594
ag608
ag586
ag526
ag588
ag373
ag580
ag600
ag602
atRp1245
ssg227
(dp1246
g9
g10
((lp1247
g184
ag187
ag225
ag227
ag194
ag234
ag249
ag19
ag130
ag253
ag256
ag208
ag211
ag261
atRp1248
sg31
g10
((lp1249
g413
ag302
ag178
atRp1250
sg71
g10
((lp1251
g268
ag178
ag227
ag413
ag302
ag417
atRp1252
ssg548
(dp1253
g9
g10
((lp1254
g548
ag120
ag18
ag554
ag621
ag101
ag19
ag424
ag104
ag558
ag598
ag406
ag590
ag472
atRp1255
sg31
g10
((lp1256
g524
ag520
ag526
atRp1257
sg71
g10
((lp1258
g548
ag520
ag526
ag524
ag562
ag550
atRp1259
ssg256
(dp1260
g9
g10
((lp1261
g256
ag19
atRp1262
sg31
g10
((lp1263
g520
ag573
ag178
ag318
ag576
ag349
ag310
ag413
ag298
ag302
ag294
ag61
atRp1264
sg71
g10
((lp1265
g850
ag748
ag178
ag256
ag191
ag194
ag284
ag349
ag205
ag413
ag208
ag330
ag353
ag215
ag61
ag520
ag754
ag453
ag225
ag227
ag538
ag401
ag310
ag608
ag302
ag229
ag544
ag606
ag237
ag332
ag613
ag334
ag243
ag245
ag617
ag247
ag268
ag234
ag322
ag253
ag714
ag324
ag298
ag326
ag394
ag457
ag403
ag600
ag336
ag265
ag619
ag573
ag666
ag289
ag848
ag318
ag398
ag576
ag422
ag261
ag328
ag450
ag294
ag277
ag417
ag627
atRp1266
ssg21
(dp1267
g9
g10
((lp1268
g29
ag19
ag21
ag23
atRp1269
sg31
g10
((lp1270
g37
ag178
ag349
ag369
ag69
ag45
ag53
ag61
atRp1271
sg71
g10
((lp1272
g7
ag178
ag377
ag349
ag69
ag381
ag84
ag215
ag61
ag37
ag222
ag82
ag78
ag80
ag245
ag74
ag76
ag369
ag21
ag773
ag385
ag45
ag53
ag258
ag263
ag265
ag270
ag762
ag387
ag512
ag86
ag88
atRp1273
ssg274
(dp1274
g9
g10
((lp1275
g249
ag274
ag19
ag23
atRp1276
sg31
g10
((lp1277
g178
ag349
ag369
ag45
ag298
ag53
ag61
ag684
atRp1278
sg71
g10
((lp1279
g690
ag178
ag349
ag205
ag215
ag61
ag684
ag387
ag756
ag229
ag78
ag199
ag758
ag245
ag353
ag369
ag694
ag385
ag45
ag53
ag258
ag263
ag265
ag270
ag762
ag512
ag698
ag298
ag86
ag274
ag88
ag766
atRp1280
ssg270
(dp1281
g9
g10
((lp1282
g220
ag258
ag270
ag29
ag184
ag19
ag249
ag251
ag21
ag23
ag130
ag213
ag274
ag199
atRp1283
sg31
g10
((lp1284
g369
ag349
ag178
atRp1285
sg71
g10
((lp1286
g265
ag178
ag512
ag349
ag369
ag270
atRp1287
ssg762
(dp1288
g9
g10
((lp1289
g258
ag762
ag773
ag764
ag19
ag249
ag251
ag21
ag23
ag677
ag29
ag274
ag154
ag758
atRp1290
sg31
g10
((lp1291
g45
ag349
ag369
atRp1292
sg71
g10
((lp1293
g762
ag369
ag349
ag512
ag385
ag45
atRp1294
ssg692
(dp1295
g9
g10
((lp1296
g130
ag771
ag135
ag495
ag673
ag127
ag19
ag692
ag23
ag677
ag108
ag213
ag140
ag154
atRp1297
sg31
g10
((lp1298
g167
ag369
ag684
atRp1299
sg71
g10
((lp1300
g167
ag369
ag694
ag696
ag692
ag684
atRp1301
ssg512
(dp1302
g9
g10
((lp1303
g690
ag184
ag199
ag19
ag213
ag752
ag220
ag127
ag130
ag677
ag673
ag758
ag249
ag251
ag21
ag23
ag773
ag258
ag270
ag762
ag764
ag512
ag29
ag274
ag154
atRp1304
sg31
g10
((lp1305
g349
ag369
atRp1306
sg71
g10
((lp1307
g512
ag349
ag369
atRp1308
ssg424
(dp1309
g9
g10
((lp1310
g101
ag406
ag19
ag424
atRp1311
sg31
g10
((lp1312
g520
ag318
ag524
ag310
ag159
ag302
ag526
ag294
atRp1313
sg71
g10
((lp1314
g534
ag536
ag330
ag538
ag310
ag540
ag302
ag544
ag526
ag332
ag556
ag334
ag520
ag617
ag524
ag735
ag324
ag550
ag552
ag548
ag318
ag554
ag422
ag424
ag159
ag560
ag562
ag922
ag328
ag294
ag625
ag426
atRp1315
ssg560
(dp1316
g9
g10
((lp1317
g146
ag148
ag120
ag554
ag122
ag621
ag101
ag735
ag19
ag424
ag104
ag560
ag406
ag154
atRp1318
sg31
g10
((lp1319
g524
ag159
ag318
atRp1320
sg71
g10
((lp1321
g159
ag318
ag524
ag540
ag536
ag560
atRp1322
ssg88
(dp1323
g9
g10
((lp1324
g7
ag377
ag19
ag357
ag445
ag387
ag15
ag18
ag756
ag78
ag470
ag80
ag135
ag249
ag251
ag21
ag491
ag23
ag27
ag258
ag379
ag495
ag29
ag274
ag88
atRp1325
sg31
g10
((lp1326
g53
ag45
atRp1327
sg71
g10
((lp1328
g53
ag45
ag88
atRp1329
ssg152
(dp1330
g9
g10
((lp1331
g152
ag104
ag19
ag135
atRp1332
sg31
g10
((lp1333
g37
ag167
ag524
ag69
ag159
ag373
ag526
ag530
atRp1334
sg71
g10
((lp1335
g96
ag69
ag580
ag391
ag37
ag167
ag556
ag485
ag142
ag125
ag540
ag542
ag526
ag546
ag592
ag118
ag74
ag468
ag524
ag373
ag584
ag389
ag596
ag733
ag499
ag159
ag562
ag487
ag152
ag788
ag564
ag530
atRp1336
ssg208
(dp1337
g9
g10
((lp1338
g187
ag194
ag19
ag130
ag256
ag208
ag261
atRp1339
sg31
g10
((lp1340
g294
ag413
ag302
ag178
atRp1341
sg71
g10
((lp1342
g850
ag268
ag178
ag227
ag413
ag208
ag302
ag417
ag294
ag334
atRp1343
ssg766
(dp1344
g9
g10
((lp1345
g771
ag758
ag135
ag495
ag764
ag756
ag249
ag19
ag23
ag677
ag108
ag274
ag154
ag766
atRp1346
sg31
g10
((lp1347
g45
ag369
ag684
atRp1348
sg71
g10
((lp1349
g369
ag694
ag385
ag45
ag684
ag766
atRp1350
ssg690
(dp1351
g9
g10
((lp1352
g690
ag184
ag764
ag673
ag249
ag127
ag19
ag130
ag23
ag677
ag199
ag213
ag274
ag154
ag752
ag758
atRp1353
sg31
g10
((lp1354
g298
ag349
ag369
ag684
atRp1355
sg71
g10
((lp1356
g690
ag353
ag369
ag349
ag512
ag694
ag698
ag298
ag684
atRp1357
ssg187
(dp1358
g9
g10
((lp1359
g187
ag19
atRp1360
sg31
g10
((lp1361
g37
ag520
ag573
ag178
ag576
ag413
ag302
ag373
ag526
ag294
ag53
ag61
atRp1362
sg71
g10
((lp1363
g442
ag187
ag748
ag178
ag487
ag413
ag208
ag534
ag211
ag84
ag580
ag215
ag61
ag37
ag447
ag222
ag227
ag538
ag261
ag850
ag302
ag489
ag586
ag82
ag588
ag232
ag481
ag613
ag334
ag615
ag243
ag383
ag617
ag526
ag623
ag253
ag714
ag594
ag608
ag453
ag373
ag455
ag550
ag650
ag457
ag53
ag493
ag600
ag389
ag602
ag263
ag268
ag573
ag520
ag848
ag576
ag497
ag606
ag272
ag450
ag294
ag625
ag86
ag277
ag417
ag627
atRp1364
ssg786
(dp1365
g9
g10
((lp1366
g771
ag135
ag495
ag122
ag101
ag19
ag23
ag677
ag150
ag108
ag111
ag786
ag154
ag790
atRp1367
sg31
g10
((lp1368
g530
ag167
ag684
atRp1369
sg71
g10
((lp1370
g167
ag696
ag564
ag530
ag684
ag786
atRp1371
ssg194
(dp1372
g9
g10
((lp1373
g256
ag19
ag130
ag194
atRp1374
sg31
g10
((lp1375
g178
ag318
ag349
ag310
ag413
ag298
ag302
ag294
atRp1376
sg71
g10
((lp1377
g178
ag194
ag324
ag284
ag349
ag205
ag208
ag330
ag403
ag754
ag227
ag310
ag302
ag237
ag332
ag334
ag850
ag353
ag234
ag322
ag413
ag298
ag326
ag394
ag336
ag265
ag268
ag666
ag318
ag328
ag294
ag417
atRp1378
ssg349
(dp1379
g9
g10
((lp1380
g690
ag184
ag191
ag194
ag349
ag205
ag213
ag353
ag752
ag754
ag220
ag225
ag127
ag130
ag677
ag229
ag234
ag237
ag673
ag199
ag758
ag245
ag247
ag19
ag249
ag251
ag21
ag23
ag256
ag773
ag258
ag265
ag666
ag270
ag762
ag764
ag512
ag29
ag274
ag154
atRp1381
sg31
g10
((lp1382
g349
atRp1383
sg71
g10
((lp1384
g349
atRp1385
ssg650
(dp1386
g9
g10
((lp1387
g187
ag650
ag19
ag232
ag623
ag29
ag406
atRp1388
sg31
g10
((lp1389
g576
ag413
ag573
ag373
atRp1390
sg71
g10
((lp1391
g413
ag573
ag848
ag576
ag606
ag714
ag594
ag373
ag650
ag586
atRp1392
ssg104
(dp1393
g9
g10
((lp1394
g104
ag19
atRp1395
sg31
g10
((lp1396
g37
ag520
ag573
ag167
ag318
ag524
ag69
ag159
ag373
ag526
ag294
ag530
atRp1397
sg71
g10
((lp1398
g115
ag96
ag534
ag564
ag487
ag69
ag536
ag596
ag584
ag580
ag481
ag391
ag37
ag120
ag538
ag485
ag142
ag125
ag540
ag542
ag118
ag586
ag544
ag526
ag588
ag546
ag590
ag733
ag332
ag613
ag615
ag520
ag548
ag74
ag468
ag524
ag138
ag148
ag152
ag373
ag550
ag552
ag167
ag493
ag600
ag389
ag466
ag146
ag619
ag573
ag592
ag318
ag554
ag497
ag556
ag558
ag104
ag499
ag159
ag560
ag562
ag621
ag294
ag788
ag472
ag530
atRp1399
ssg534
(dp1400
g9
g10
((lp1401
g187
ag534
ag120
ag554
ag621
ag101
ag19
ag424
ag104
ag623
ag625
ag406
ag481
ag615
atRp1402
sg31
g10
((lp1403
g294
ag520
ag526
atRp1404
sg71
g10
((lp1405
g520
ag534
ag526
ag538
ag550
ag294
atRp1406
ssg140
(dp1407
g9
g10
((lp1408
g135
ag127
ag19
ag130
ag108
ag140
ag154
atRp1409
sg31
g10
((lp1410
g159
ag167
ag369
ag684
atRp1411
sg71
g10
((lp1412
g96
ag167
ag369
ag694
ag159
ag696
ag140
ag692
ag113
ag684
atRp1413
ssg213
(dp1414
g9
g10
((lp1415
g213
ag19
ag130
ag23
atRp1416
sg31
g10
((lp1417
g167
ag349
ag369
ag298
ag178
ag684
atRp1418
sg71
g10
((lp1419
g265
ag688
ag684
ag178
ag270
ag353
ag205
ag349
ag369
ag692
ag690
ag298
ag694
ag696
ag512
ag213
ag167
ag673
ag199
ag698
atRp1420
ssg684
(dp1421
g9
g10
((lp1422
g690
ag184
ag771
ag786
ag199
ag19
ag696
ag108
ag111
ag140
ag213
ag752
ag684
ag122
ag756
ag790
ag130
ag113
ag677
ag673
ag101
ag758
ag688
ag133
ag135
ag249
ag127
ag23
ag694
ag750
ag760
ag144
ag495
ag764
ag154
ag150
ag274
ag692
ag698
ag766
atRp1423
sg31
g10
((lp1424
g684
atRp1425
sg71
g10
((lp1426
g684
atRp1427
ssg754
(dp1428
g9
g10
((lp1429
g184
ag666
ag225
ag194
ag764
ag234
ag249
ag127
ag19
ag130
ag256
ag154
ag752
ag754
atRp1430
sg31
g10
((lp1431
g298
ag349
ag310
atRp1432
sg71
g10
((lp1433
g353
ag349
ag310
ag326
ag298
ag754
atRp1434
ssg447
(dp1435
g9
g10
((lp1436
g447
ag187
ag19
ag18
atRp1437
sg31
g10
((lp1438
g37
ag520
ag573
ag576
ag373
ag526
ag53
ag61
atRp1439
sg71
g10
((lp1440
g442
ag84
ag580
ag453
ag61
ag37
ag447
ag450
ag489
ag586
ag526
ag588
ag520
ag383
ag82
ag594
ag373
ag455
ag550
ag457
ag53
ag493
ag600
ag389
ag602
ag573
ag576
ag497
ag606
ag487
ag608
ag86
atRp1441
ssg222
(dp1442
g9
g10
((lp1443
g187
ag222
ag19
ag21
ag23
ag232
ag29
atRp1444
sg31
g10
((lp1445
g37
ag61
ag53
ag178
atRp1446
sg71
g10
((lp1447
g37
ag222
ag178
ag82
ag84
ag53
ag215
ag61
ag86
ag263
atRp1448
ssg582
(dp1449
g9
g10
((lp1450
g15
ag604
ag771
ag582
ag18
ag135
ag495
ag19
ag491
ag23
ag677
ag108
ag154
ag470
atRp1451
sg31
g10
((lp1452
g530
ag45
ag69
atRp1453
sg71
g10
((lp1454
g596
ag582
ag76
ag69
ag45
ag530
atRp1455
ssg848
(dp1456
g9
g10
((lp1457
g187
ag848
ag191
ag401
ag623
ag19
ag277
ag256
ag232
ag650
ag29
ag406
ag261
ag627
atRp1458
sg31
g10
((lp1459
g576
ag413
ag573
atRp1460
sg71
g10
((lp1461
g573
ag848
ag576
ag714
ag413
ag606
atRp1462
ssg122
(dp1463
g9
g10
((lp1464
g122
ag19
ag101
ag154
atRp1465
sg31
g10
((lp1466
g167
ag318
ag524
ag310
ag159
ag298
ag530
ag684
atRp1467
sg71
g10
((lp1468
g96
ag536
ag696
ag111
ag113
ag684
ag115
ag118
ag167
ag122
ag310
ag540
ag546
ag786
ag688
ag524
ag735
ag324
ag326
ag750
ag144
ag336
ag146
ag318
ag159
ag560
ag922
ag298
ag564
ag530
ag698
ag790
atRp1469
ssg261
(dp1470
g9
g10
((lp1471
g256
ag19
ag187
ag261
atRp1472
sg31
g10
((lp1473
g520
ag573
ag178
ag576
ag413
ag302
ag294
ag61
atRp1474
sg71
g10
((lp1475
g850
ag748
ag178
ag208
ag215
ag61
ag453
ag227
ag538
ag261
ag302
ag613
ag334
ag243
ag617
ag253
ag714
ag413
ag608
ag457
ag600
ag848
ag268
ag573
ag520
ag576
ag606
ag450
ag294
ag277
ag417
ag627
atRp1476
ssg125
(dp1477
g9
g10
((lp1478
g120
ag135
ag125
ag19
ag104
ag150
ag152
ag101
atRp1479
sg31
g10
((lp1480
g524
ag159
ag167
ag530
ag526
atRp1481
sg71
g10
((lp1482
g118
ag96
ag167
ag556
ag524
ag125
ag540
ag159
ag542
ag562
ag526
ag546
ag564
ag530
atRp1483
ssg310
(dp1484
g9
g10
((lp1485
g184
ag194
ag284
ag101
ag19
ag330
ag406
ag752
ag754
ag225
ag422
ag122
ag401
ag127
ag310
ag130
ag133
ag403
ag234
ag249
ag735
ag408
ag322
ag760
ag324
ag326
ag394
ag750
ag144
ag336
ag256
ag666
ag289
ag398
ag764
ag424
ag922
ag328
ag154
ag426
atRp1486
sg31
g10
((lp1487
g310
atRp1488
sg71
g10
((lp1489
g310
atRp1490
ssg526
(dp1491
g9
g10
((lp1492
g187
ag534
ag101
ag19
ag104
ag580
ag406
ag481
ag447
ag120
ag18
ag556
ag590
ag125
ag562
ag542
ag489
ag526
ag588
ag733
ag470
ag472
ag487
ag468
ag135
ag623
ag598
ag550
ag584
ag602
ag548
ag554
ag497
ag424
ag558
ag150
ag621
ag152
ag625
ag615
atRp1493
sg31
g10
((lp1494
g526
atRp1495
sg71
g10
((lp1496
g526
atRp1497
ssg590
(dp1498
g9
g10
((lp1499
g18
ag621
ag19
ag104
ag598
ag406
ag590
ag472
atRp1500
sg31
g10
((lp1501
g524
ag520
ag573
ag373
ag526
atRp1502
sg71
g10
((lp1503
g548
ag520
ag573
ag550
ag524
ag584
ag590
ag562
ag373
ag526
ag588
ag586
ag580
ag600
atRp1504
ssg237
(dp1505
g9
g10
((lp1506
g220
ag247
ag191
ag194
ag19
ag249
ag251
ag130
ag184
ag256
ag234
ag29
ag225
ag237
atRp1507
sg31
g10
((lp1508
g413
ag349
ag178
atRp1509
sg71
g10
((lp1510
g265
ag268
ag178
ag349
ag413
ag237
atRp1511
ssg78
(dp1512
g9
g10
((lp1513
g7
ag15
ag258
ag18
ag19
ag249
ag251
ag21
ag23
ag27
ag29
ag445
ag274
ag78
atRp1514
sg31
g10
((lp1515
g45
ag53
ag61
atRp1516
sg71
g10
((lp1517
g61
ag45
ag53
ag78
ag86
ag88
atRp1518
ssg850
(dp1519
g9
g10
((lp1520
g850
ag187
ag403
ag194
ag401
ag19
ag130
ag256
ag208
ag623
ag406
ag261
ag408
ag627
atRp1521
sg31
g10
((lp1522
g294
ag413
ag302
atRp1523
sg71
g10
((lp1524
g850
ag413
ag302
ag334
ag294
ag417
atRp1525
ssg146
(dp1526
g9
g10
((lp1527
g146
ag148
ag120
ag122
ag101
ag19
ag104
ag154
atRp1528
sg31
g10
((lp1529
g524
ag159
ag167
ag530
ag318
atRp1530
sg71
g10
((lp1531
g146
ag96
ag167
ag159
ag318
ag524
ag540
ag536
ag560
ag118
ag546
ag564
ag530
ag115
atRp1532
ssg353
(dp1533
g9
g10
((lp1534
g690
ag184
ag194
ag199
ag205
ag213
ag752
ag754
ag225
ag127
ag130
ag677
ag229
ag673
ag758
ag353
ag234
ag249
ag23
ag256
ag19
ag666
ag764
ag274
ag154
atRp1535
sg31
g10
((lp1536
g298
ag349
atRp1537
sg71
g10
((lp1538
g298
ag349
ag353
atRp1539
ssg268
(dp1540
g9
g10
((lp1541
g184
ag187
ag191
ag194
ag19
ag208
ag211
ag220
ag225
ag227
ag130
ag232
ag237
ag243
ag247
ag234
ag249
ag251
ag253
ag256
ag261
ag268
ag272
ag29
ag277
atRp1542
sg31
g10
((lp1543
g413
ag178
atRp1544
sg71
g10
((lp1545
g413
ag268
ag178
atRp1546
ssg76
(dp1547
g9
g10
((lp1548
g7
ag771
ag377
ag19
ag357
ag381
ag108
ag15
ag582
ag18
ag677
ag470
ag80
ag135
ag76
ag21
ag491
ag23
ag773
ag27
ag379
ag604
ag495
ag29
ag154
atRp1549
sg31
g10
((lp1550
g45
ag69
atRp1551
sg71
g10
((lp1552
g76
ag45
ag69
atRp1553
ssg138
(dp1554
g9
g10
((lp1555
g133
ag120
ag138
ag101
ag19
ag130
ag104
atRp1556
sg31
g10
((lp1557
g294
ag159
ag167
ag318
atRp1558
sg71
g10
((lp1559
g96
ag167
ag159
ag318
ag138
ag536
ag552
ag294
ag332
ag115
atRp1560
ssg760
(dp1561
g9
g10
((lp1562
g133
ag184
ag249
ag19
ag130
ag760
ag101
atRp1563
sg31
g10
((lp1564
g298
ag302
ag310
ag684
atRp1565
sg71
g10
((lp1566
g310
ag322
ag760
ag302
ag698
ag328
ag298
ag750
ag684
ag326
atRp1567
ssg324
(dp1568
g9
g10
((lp1569
g194
ag284
ag101
ag19
ag330
ag406
ag422
ag122
ag401
ag127
ag130
ag133
ag403
ag735
ag408
ag324
ag144
ag336
ag256
ag666
ag289
ag424
ag922
ag154
ag426
atRp1570
sg31
g10
((lp1571
g310
ag318
atRp1572
sg71
g10
((lp1573
g324
ag310
ag318
atRp1574
ssg773
(dp1575
g9
g10
((lp1576
g773
ag19
ag21
ag23
ag677
ag29
ag154
atRp1577
sg31
g10
((lp1578
g45
ag349
ag369
ag69
atRp1579
sg71
g10
((lp1580
g762
ag773
ag76
ag512
ag349
ag369
ag69
ag381
ag385
ag45
atRp1581
ssg694
(dp1582
g9
g10
((lp1583
g690
ag184
ag771
ag199
ag19
ag108
ag213
ag752
ag756
ag127
ag130
ag677
ag673
ag758
ag135
ag249
ag23
ag694
ag140
ag495
ag764
ag154
ag274
ag692
ag766
atRp1584
sg31
g10
((lp1585
g369
ag684
atRp1586
sg71
g10
((lp1587
g694
ag369
ag684
atRp1588
ssg142
(dp1589
g9
g10
((lp1590
g148
ag135
ag154
ag19
ag104
ag108
ag152
ag142
atRp1591
sg31
g10
((lp1592
g524
ag159
ag167
ag530
ag69
atRp1593
sg71
g10
((lp1594
g596
ag96
ag564
ag167
ag524
ag530
ag69
ag540
ag159
ag118
ag546
ag788
ag592
ag142
atRp1595
ssg455
(dp1596
g9
g10
((lp1597
g272
ag442
ag187
ag18
ag447
ag19
ag249
ag251
ag232
ag455
ag211
ag27
ag29
ag445
atRp1598
sg31
g10
((lp1599
g576
ag53
ag61
atRp1600
sg71
g10
((lp1601
g576
ag455
ag457
ag53
ag61
ag86
atRp1602
ssg552
(dp1603
g9
g10
((lp1604
g133
ag120
ag554
ag621
ag101
ag19
ag130
ag424
ag104
ag138
ag552
ag406
ag408
ag426
atRp1605
sg31
g10
((lp1606
g294
ag159
ag318
atRp1607
sg71
g10
((lp1608
g159
ag318
ag536
ag552
ag294
ag332
atRp1609
ssg289
(dp1610
g9
g10
((lp1611
g256
ag19
ag101
ag289
atRp1612
sg31
g10
((lp1613
g520
ag318
ag310
ag298
ag302
ag294
atRp1614
sg71
g10
((lp1615
g520
ag326
ag617
ag289
ag318
ag538
ag284
ag422
ag310
ag322
ag298
ag324
ag294
ag302
ag544
ag328
ag330
ag332
ag334
ag336
atRp1616
ssg487
(dp1617
g9
g10
((lp1618
g447
ag187
ag18
ag135
ag497
ag468
ag19
ag104
ag489
ag487
ag152
ag481
ag470
ag472
atRp1619
sg31
g10
((lp1620
g37
ag373
ag526
atRp1621
sg71
g10
((lp1622
g37
ag487
ag373
ag526
ag580
ag389
atRp1623
ssg466
(dp1624
g9
g10
((lp1625
g18
ag19
ag104
ag27
ag29
ag472
ag466
atRp1626
sg31
g10
((lp1627
g37
ag573
ag373
ag69
atRp1628
sg71
g10
((lp1629
g37
ag466
ag74
ag573
ag69
ag373
ag586
ag493
ag389
ag391
atRp1630
ssg596
(dp1631
g9
g10
((lp1632
g771
ag19
ag104
ag108
ag15
ag582
ag18
ag485
ag677
ag592
ag470
ag472
ag468
ag135
ag491
ag23
ag142
ag596
ag604
ag148
ag495
ag499
ag152
ag788
ag154
atRp1633
sg31
g10
((lp1634
g530
ag69
atRp1635
sg71
g10
((lp1636
g596
ag530
ag69
atRp1637
ssg573
(dp1638
g9
g10
((lp1639
g442
ag187
ag256
ag191
ag650
ag19
ag104
ag406
ag481
ag447
ag453
ag18
ag401
ag586
ag588
ag232
ag590
ag466
ag613
ag472
ag623
ag594
ag29
ag598
ag450
ag27
ag493
ag261
ag602
ag848
ag600
ag619
ag573
ag497
ag606
ag621
ag608
ag615
ag277
ag627
atRp1640
sg31
g10
((lp1641
g573
atRp1642
sg71
g10
((lp1643
g573
atRp1644
ssg733
(dp1645
g9
g10
((lp1646
g406
ag135
ag621
ag19
ag104
ag152
ag733
atRp1647
sg31
g10
((lp1648
g524
ag159
ag373
ag526
atRp1649
sg71
g10
((lp1650
g556
ag524
ag540
ag159
ag562
ag373
ag526
ag580
ag733
ag584
atRp1651
ssg318
(dp1652
g9
g10
((lp1653
g194
ag284
ag101
ag19
ag104
ag330
ag406
ag115
ag120
ag422
ag122
ag401
ag127
ag130
ag544
ag922
ag332
ag133
ag403
ag138
ag536
ag735
ag408
ag324
ag552
ag144
ag336
ag146
ag619
ag148
ag666
ag289
ag318
ag554
ag621
ag424
ag560
ag256
ag154
ag426
atRp1654
sg31
g10
((lp1655
g318
atRp1656
sg71
g10
((lp1657
g318
atRp1658
ssg554
(dp1659
g9
g10
((lp1660
g120
ag554
ag621
ag101
ag19
ag424
ag104
ag406
atRp1661
sg31
g10
((lp1662
g520
ag318
ag524
ag159
ag526
ag294
atRp1663
sg71
g10
((lp1664
g548
ag520
ag554
ag550
ag318
ag556
ag524
ag538
ag540
ag536
ag560
ag562
ag534
ag544
ag526
ag159
ag294
ag332
ag552
atRp1665
ssg613
(dp1666
g9
g10
((lp1667
g619
ag187
ag627
ag401
ag623
ag19
ag104
ag256
ag621
ag481
ag406
ag261
ag613
ag615
atRp1668
sg31
g10
((lp1669
g294
ag520
ag573
atRp1670
sg71
g10
((lp1671
g520
ag573
ag538
ag294
ag600
ag613
atRp1672
ssg606
(dp1673
g9
g10
((lp1674
g442
ag187
ag191
ag27
ag19
ag453
ag447
ag406
ag18
ag401
ag232
ag623
ag256
ag29
ag598
ag650
ag261
ag602
ag848
ag594
ag606
ag450
ag608
ag277
ag627
atRp1675
sg31
g10
((lp1676
g576
ag573
atRp1677
sg71
g10
((lp1678
g576
ag573
ag606
atRp1679
ssg328
(dp1680
g9
g10
((lp1681
g184
ag194
ag284
ag101
ag19
ag330
ag406
ag225
ag422
ag401
ag130
ag133
ag403
ag234
ag249
ag408
ag322
ag760
ag256
ag394
ag289
ag398
ag424
ag328
ag426
atRp1682
sg31
g10
((lp1683
g302
ag310
atRp1684
sg71
g10
((lp1685
g302
ag310
ag328
atRp1686
ssg298
(dp1687
g9
g10
((lp1688
g690
ag184
ag194
ag284
ag199
ag205
ag213
ag752
ag754
ag225
ag122
ag127
ag130
ag677
ag229
ag234
ag673
ag101
ag758
ag688
ag133
ag353
ag19
ag249
ag322
ag23
ag256
ag326
ag750
ag760
ag144
ag336
ag666
ag289
ag764
ag298
ag274
ag154
ag698
ag790
atRp1689
sg31
g10
((lp1690
g298
atRp1691
sg71
g10
((lp1692
g298
atRp1693
ssg625
(dp1694
g9
g10
((lp1695
g187
ag101
ag19
ag424
ag623
ag625
ag406
atRp1696
sg31
g10
((lp1697
g294
ag520
ag302
ag526
atRp1698
sg71
g10
((lp1699
g520
ag617
ag550
ag538
ag302
ag534
ag526
ag294
ag625
ag334
atRp1700
ssg86
(dp1701
g9
g10
((lp1702
g7
ag442
ag187
ag84
ag19
ag211
ag445
ag15
ag447
ag222
ag18
ag232
ag78
ag249
ag251
ag21
ag23
ag455
ag27
ag258
ag263
ag272
ag29
ag86
ag274
atRp1703
sg31
g10
((lp1704
g53
ag61
atRp1705
sg71
g10
((lp1706
g53
ag61
ag86
atRp1707
ssg277
(dp1708
g9
g10
((lp1709
g187
ag191
ag261
ag19
ag256
ag232
ag29
ag277
atRp1710
sg31
g10
((lp1711
g576
ag61
ag573
ag178
ag413
atRp1712
sg71
g10
((lp1713
g243
ag268
ag573
ag453
ag178
ag848
ag576
ag277
ag714
ag413
ag606
ag457
ag215
ag61
atRp1714
ssg417
(dp1715
g9
g10
((lp1716
g184
ag187
ag748
ag194
ag19
ag208
ag211
ag406
ag225
ag227
ag401
ag130
ag850
ag403
ag234
ag249
ag408
ag253
ag256
ag394
ag261
ag398
ag623
ag417
ag627
atRp1717
sg31
g10
((lp1718
g413
ag302
atRp1719
sg71
g10
((lp1720
g413
ag302
ag417
atRp1721
ssg627
(dp1722
g9
g10
((lp1723
g187
ag401
ag19
ag256
ag623
ag406
ag261
ag627
atRp1724
sg31
g10
((lp1725
g520
ag573
ag576
ag413
ag302
ag294
atRp1726
sg71
g10
((lp1727
g850
ag520
ag573
ag617
ag848
ag538
ag576
ag714
ag413
ag608
ag302
ag748
ag606
ag417
ag294
ag600
ag613
ag334
ag627
atRp1728
ssg688
(dp1729
g9
g10
((lp1730
g688
ag133
ag122
ag673
ag101
ag127
ag19
ag130
ag23
ag677
ag213
ag154
ag144
ag790
atRp1731
sg31
g10
((lp1732
g298
ag167
ag684
atRp1733
sg71
g10
((lp1734
g688
ag167
ag696
ag698
ag298
ag684
atRp1735
ssg748
(dp1736
g9
g10
((lp1737
g187
ag748
ag225
ag398
ag401
ag249
ag19
ag253
ag256
ag211
ag623
ag406
ag261
ag627
atRp1738
sg31
g10
((lp1739
g576
ag413
ag302
atRp1740
sg71
g10
((lp1741
g748
ag576
ag714
ag413
ag302
ag417
atRp1742
ssg111
(dp1743
g9
g10
((lp1744
g135
ag122
ag101
ag19
ag150
ag108
ag111
ag154
atRp1745
sg31
g10
((lp1746
g524
ag159
ag167
ag530
ag684
atRp1747
sg71
g10
((lp1748
g118
ag96
ag167
ag524
ag540
ag159
ag696
ag111
ag546
ag564
ag530
ag113
ag684
ag786
atRp1749
ssg101
(dp1750
g9
g10
((lp1751
g101
ag19
atRp1752
sg31
g10
((lp1753
g520
ag167
ag318
ag524
ag310
ag159
ag298
ag302
ag526
ag294
ag530
ag684
atRp1754
sg71
g10
((lp1755
g96
ag534
ag284
ag101
ag536
ag696
ag111
ag750
ag330
ag113
ag684
ag115
ag118
ag120
ag538
ag122
ag125
ag310
ag562
ag540
ag542
ag302
ag544
ag526
ag546
ag332
ag556
ag334
ag786
ag688
ag133
ag617
ag524
ag138
ag735
ag322
ag760
ag324
ag298
ag326
ag550
ag552
ag167
ag144
ag336
ag146
ag289
ag318
ag548
ag554
ag530
ag422
ag558
ag424
ag159
ag560
ag150
ag922
ag426
ag328
ag294
ag625
ag564
ag520
ag698
ag790
atRp1756
ssg19
(dp1757
g9
g10
((lp1758
g19
atRp1759
sg31
g10
((lp1760
g178
ag349
ag69
ag61
ag684
ag37
ag167
ag310
ag302
ag526
ag520
ag524
ag369
ag413
ag294
ag45
ag53
ag573
ag318
ag576
ag159
ag298
ag373
ag530
atRp1761
sg71
g10
((lp1762
g7
ag96
ag178
ag564
ag284
ag205
ag357
ag552
ag584
ag330
ag215
ag61
ag391
ag37
ag220
ag120
ag18
ag538
ag485
ag377
ag850
ag586
ag82
ag733
ag673
ag470
ag243
ag74
ag619
ag524
ag249
ag369
ag23
ag598
ag457
ag263
ag600
ag389
ag336
ag265
ag604
ag623
ag495
ag576
ag497
ag554
ag150
ag621
ag294
ag788
ag472
ag154
ag698
ag790
ag442
ag771
ag84
ag191
ag245
ag199
ag536
ag381
ag696
ag111
ag580
ag406
ag752
ag15
ag167
ag556
ag756
ag540
ag677
ag229
ag544
ag115
ag332
ag334
ag615
ag133
ag617
ag247
ag135
ag735
ag251
ag322
ag491
ag21
ag594
ag373
ag326
ag225
ag53
ag493
ag142
ag379
ag602
ag227
ag146
ag256
ag274
ag289
ag762
ag277
ag512
ag424
ag560
ag417
ag152
ag208
ag766
ag690
ag187
ag786
ag194
ag349
ag650
ag104
ag534
ag140
ag213
ag684
ag754
ag447
ag222
ag582
ag848
ag122
ag261
ag125
ag310
ag526
ag590
ag237
ag78
ag80
ag548
ag353
ag76
ag138
ag760
ag324
ag773
ag694
ag455
ag394
ag270
ag487
ag466
ag596
ag573
ag592
ag318
ag398
ag613
ag606
ag328
ag298
ag625
ag86
ag692
ag88
ag627
ag688
ag748
ag211
ag101
ag19
ag69
ag413
ag108
ag445
ag453
ag481
ag118
ag387
ag558
ag401
ag127
ag130
ag113
ag542
ag302
ag489
ag232
ag234
ag588
ag546
ag758
ag520
ag383
ag403
ag468
ag408
ag253
ag184
ag608
ag385
ag45
ag550
ag27
ag750
ag258
ag144
ag268
ag148
ag666
ag764
ag422
ag499
ag159
ag562
ag922
ag272
ag450
ag29
ag714
ag530
ag426
atRp1763
ssg69
(dp1764
g9
g10
((lp1765
g7
ag771
ag377
ag19
ag69
ag357
ag381
ag108
ag391
ag15
ag582
ag18
ag485
ag677
ag592
ag470
ag472
ag80
ag74
ag468
ag135
ag76
ag21
ag491
ag23
ag773
ag27
ag142
ag379
ag466
ag596
ag604
ag148
ag29
ag495
ag104
ag499
ag152
ag788
ag154
atRp1766
sg31
g10
((lp1767
g69
atRp1768
sg71
g10
((lp1769
g69
atRp1770
ssg108
(dp1771
g9
g10
((lp1772
g19
ag108
ag154
ag135
atRp1773
sg31
g10
((lp1774
g167
ag524
ag369
ag69
ag159
ag45
ag530
ag684
atRp1775
sg71
g10
((lp1776
g96
ag771
ag69
ag381
ag696
ag108
ag111
ag140
ag113
ag684
ag118
ag167
ag540
ag76
ag546
ag592
ag786
ag524
ag369
ag694
ag385
ag45
ag582
ag142
ag596
ag604
ag530
ag159
ag788
ag564
ag692
ag766
atRp1777
ssg445
(dp1778
g9
g10
((lp1779
g18
ag251
ag249
ag19
ag27
ag29
ag445
atRp1780
sg31
g10
((lp1781
g576
ag45
ag53
ag61
atRp1782
sg71
g10
((lp1783
g576
ag78
ag45
ag455
ag445
ag457
ag53
ag61
ag86
ag88
atRp1784
ssg453
(dp1785
g9
g10
((lp1786
g442
ag187
ag18
ag191
ag447
ag277
ag19
ag256
ag232
ag450
ag27
ag29
ag453
ag261
atRp1787
sg31
g10
((lp1788
g576
ag573
ag61
atRp1789
sg71
g10
((lp1790
g573
ag576
ag606
ag457
ag453
ag61
atRp1791
ssg481
(dp1792
g9
g10
((lp1793
g104
ag481
ag187
ag19
atRp1794
sg31
g10
((lp1795
g37
ag520
ag573
ag373
ag526
ag294
atRp1796
sg71
g10
((lp1797
g37
ag520
ag573
ag534
ag550
ag538
ag497
ag481
ag613
ag588
ag586
ag526
ag487
ag294
ag373
ag580
ag493
ag600
ag389
ag615
atRp1798
ssg118
(dp1799
g9
g10
((lp1800
g146
ag118
ag148
ag120
ag135
ag122
ag142
ag125
ag19
ag104
ag150
ag108
ag111
ag152
ag154
ag101
atRp1801
sg31
g10
((lp1802
g524
ag159
ag167
ag530
atRp1803
sg71
g10
((lp1804
g118
ag96
ag167
ag524
ag540
ag159
ag546
ag564
ag530
atRp1805
ssg387
(dp1806
g9
g10
((lp1807
g387
ag135
ag495
ag756
ag249
ag377
ag251
ag21
ag23
ag357
ag29
ag19
ag274
ag258
atRp1808
sg31
g10
((lp1809
g45
ag53
ag369
atRp1810
sg71
g10
((lp1811
g369
ag385
ag45
ag53
ag387
ag88
atRp1812
ssg558
(dp1813
g9
g10
((lp1814
g120
ag18
ag101
ag19
ag104
ag558
ag472
atRp1815
sg31
g10
((lp1816
g524
ag520
ag530
ag526
atRp1817
sg71
g10
((lp1818
g548
ag520
ag550
ag558
ag524
ag542
ag562
ag526
ag546
ag530
atRp1819
ssg401
(dp1820
g9
g10
((lp1821
g256
ag401
ag406
ag19
atRp1822
sg31
g10
((lp1823
g520
ag573
ag318
ag576
ag310
ag413
ag302
ag294
atRp1824
sg71
g10
((lp1825
g520
ag748
ag324
ag330
ag848
ag538
ag401
ag310
ag302
ag544
ag332
ag613
ag334
ag850
ag617
ag403
ag714
ag413
ag608
ag394
ag600
ag619
ag573
ag318
ag398
ag576
ag422
ag606
ag328
ag294
ag417
ag627
atRp1826
ssg127
(dp1827
g9
g10
((lp1828
g19
ag127
ag154
ag130
atRp1829
sg31
g10
((lp1830
g167
ag318
ag310
ag349
ag369
ag159
ag298
ag684
atRp1831
sg71
g10
((lp1832
g690
ag96
ag349
ag536
ag696
ag140
ag752
ag684
ag115
ag167
ag127
ag310
ag113
ag754
ag673
ag688
ag353
ag369
ag324
ag694
ag326
ag750
ag144
ag336
ag666
ag318
ag512
ag159
ag922
ag298
ag692
ag698
atRp1833
ssg130
(dp1834
g9
g10
((lp1835
g19
ag130
atRp1836
sg31
g10
((lp1837
g159
ag167
ag318
ag310
ag349
ag369
ag413
ag298
ag302
ag294
ag178
ag684
atRp1838
sg71
g10
((lp1839
g690
ag96
ag178
ag194
ag284
ag349
ag205
ag413
ag536
ag213
ag696
ag140
ag330
ag403
ag144
ag752
ag684
ag754
ag426
ag220
ag167
ag227
ag127
ag310
ag130
ag113
ag552
ag302
ag234
ag115
ag332
ag199
ag334
ag688
ag133
ag353
ag184
ag138
ag369
ag322
ag760
ag324
ag298
ag694
ag666
ag326
ag850
ag394
ag750
ag408
ag336
ag265
ag268
ag237
ag270
ag318
ag208
ag673
ag512
ag159
ag922
ag417
ag328
ag294
ag692
ag698
atRp1840
ssg113
(dp1841
g9
g10
((lp1842
g133
ag135
ag122
ag101
ag127
ag19
ag130
ag144
ag150
ag108
ag111
ag140
ag154
ag113
atRp1843
sg31
g10
((lp1844
g159
ag167
ag684
atRp1845
sg71
g10
((lp1846
g96
ag167
ag159
ag696
ag113
ag684
atRp1847
ssg542
(dp1848
g9
g10
((lp1849
g468
ag120
ag18
ag135
ag542
ag125
ag19
ag101
ag104
ag558
ag150
ag152
ag470
ag472
atRp1850
sg31
g10
((lp1851
g524
ag530
ag526
atRp1852
sg71
g10
((lp1853
g524
ag542
ag562
ag526
ag546
ag530
atRp1854
ssg302
(dp1855
g9
g10
((lp1856
g184
ag187
ag748
ag194
ag284
ag101
ag19
ag208
ag211
ag330
ag406
ag225
ag227
ag422
ag401
ag130
ag302
ag334
ag850
ag133
ag617
ag403
ag234
ag249
ag408
ag322
ag253
ag760
ag256
ag394
ag261
ag289
ag398
ag424
ag426
ag328
ag623
ag625
ag417
ag627
atRp1857
sg31
g10
((lp1858
g302
atRp1859
sg71
g10
((lp1860
g302
atRp1861
ssg489
(dp1862
g9
g10
((lp1863
g447
ag187
ag18
ag135
ag19
ag489
ag470
atRp1864
sg31
g10
((lp1865
g37
ag53
ag373
ag526
atRp1866
sg71
g10
((lp1867
g37
ag383
ag526
ag53
ag487
ag489
ag373
ag82
ag580
ag389
atRp1868
ssg232
(dp1869
g9
g10
((lp1870
g29
ag232
ag187
ag19
atRp1871
sg31
g10
((lp1872
g37
ag573
ag178
ag576
ag413
ag373
ag53
ag61
atRp1873
sg71
g10
((lp1874
g442
ag178
ag84
ag215
ag61
ag37
ag222
ag848
ag594
ag586
ag82
ag232
ag243
ag383
ag714
ag413
ag373
ag455
ag650
ag457
ag53
ag493
ag453
ag389
ag263
ag268
ag573
ag576
ag606
ag272
ag86
ag277
atRp1875
ssg234
(dp1876
g9
g10
((lp1877
g184
ag225
ag194
ag234
ag249
ag19
ag130
ag256
atRp1878
sg31
g10
((lp1879
g178
ag349
ag310
ag413
ag302
ag298
atRp1880
sg71
g10
((lp1881
g265
ag268
ag178
ag227
ag310
ag349
ag205
ag322
ag413
ag298
ag302
ag326
ag328
ag234
ag394
ag353
ag237
ag417
ag754
atRp1882
ssg588
(dp1883
g9
g10
((lp1884
g447
ag187
ag18
ag497
ag623
ag19
ag104
ag598
ag621
ag588
ag590
ag406
ag481
ag472
ag602
ag615
atRp1885
sg31
g10
((lp1886
g520
ag573
ag373
ag526
atRp1887
sg71
g10
((lp1888
g520
ag573
ag550
ag373
ag526
ag588
ag586
ag580
ag600
atRp1889
ssg546
(dp1890
g9
g10
((lp1891
g101
ag19
ag104
ag108
ag111
ag118
ag120
ag18
ag122
ag125
ag542
ag546
ag592
ag470
ag472
ag468
ag135
ag142
ag146
ag604
ag148
ag558
ag150
ag152
ag154
atRp1892
sg31
g10
((lp1893
g524
ag530
atRp1894
sg71
g10
((lp1895
g524
ag546
ag530
atRp1896
ssg758
(dp1897
g9
g10
((lp1898
g764
ag249
ag19
ag23
ag677
ag274
ag154
ag758
atRp1899
sg31
g10
((lp1900
g298
ag45
ag349
ag369
ag684
atRp1901
sg71
g10
((lp1902
g690
ag353
ag762
ag369
ag349
ag512
ag694
ag385
ag45
ag684
ag298
ag758
ag698
ag766
atRp1903
ssg520
(dp1904
g9
g10
((lp1905
g187
ag534
ag101
ag19
ag104
ag406
ag481
ag447
ag120
ag18
ag538
ag401
ag544
ag588
ag590
ag613
ag472
ag520
ag548
ag617
ag450
ag623
ag256
ag598
ag550
ag261
ag602
ag600
ag619
ag289
ag554
ag497
ag422
ag424
ag558
ag621
ag608
ag625
ag615
ag627
atRp1906
sg31
g10
((lp1907
g520
atRp1908
sg71
g10
((lp1909
g520
atRp1910
ssg383
(dp1911
g9
g10
((lp1912
g442
ag187
ag18
ag135
ag447
ag19
ag470
ag357
ag383
ag489
ag232
ag27
ag29
ag379
atRp1913
sg31
g10
((lp1914
g37
ag53
ag373
atRp1915
sg71
g10
((lp1916
g37
ag383
ag373
ag82
ag53
ag389
atRp1917
ssg403
(dp1918
g9
g10
((lp1919
g403
ag194
ag401
ag19
ag130
ag256
ag406
ag408
atRp1920
sg31
g10
((lp1921
g294
ag413
ag302
ag310
ag318
atRp1922
sg71
g10
((lp1923
g850
ag413
ag403
ag318
ag310
ag324
ag330
ag302
ag417
ag328
ag394
ag294
ag332
ag334
atRp1924
ssg468
(dp1925
g9
g10
((lp1926
g18
ag135
ag468
ag19
ag104
ag152
ag470
ag472
atRp1927
sg31
g10
((lp1928
g37
ag524
ag69
ag373
ag526
ag530
atRp1929
sg71
g10
((lp1930
g37
ag596
ag74
ag468
ag542
ag485
ag487
ag530
ag69
ag524
ag562
ag373
ag526
ag546
ag580
ag592
ag584
ag389
ag391
atRp1931
ssg408
(dp1932
g9
g10
((lp1933
g408
ag406
ag19
ag130
atRp1934
sg31
g10
((lp1935
g159
ag318
ag310
ag413
ag302
ag294
atRp1936
sg71
g10
((lp1937
g413
ag536
ag403
ag159
ag318
ag426
ag408
ag310
ag324
ag330
ag302
ag922
ag417
ag328
ag394
ag294
ag850
ag332
ag334
ag552
atRp1938
ssg253
(dp1939
g9
g10
((lp1940
g187
ag225
ag249
ag19
ag253
ag256
ag211
ag261
atRp1941
sg31
g10
((lp1942
g576
ag61
ag302
ag178
ag413
atRp1943
sg71
g10
((lp1944
g243
ag268
ag748
ag178
ag227
ag576
ag253
ag714
ag413
ag302
ag457
ag215
ag61
ag417
atRp1945
ssg184
(dp1946
g9
g10
((lp1947
g184
ag249
ag19
ag130
atRp1948
sg31
g10
((lp1949
g178
ag310
ag349
ag369
ag413
ag302
ag298
ag684
atRp1950
sg71
g10
((lp1951
g690
ag184
ag178
ag349
ag205
ag752
ag684
ag754
ag220
ag227
ag310
ag302
ag237
ag199
ag353
ag234
ag369
ag322
ag760
ag413
ag694
ag326
ag394
ag750
ag265
ag268
ag270
ag512
ag417
ag328
ag298
ag698
atRp1952
ssg608
(dp1953
g9
g10
((lp1954
g447
ag187
ag18
ag401
ag623
ag19
ag256
ag598
ag450
ag608
ag406
ag261
ag602
ag627
atRp1955
sg31
g10
((lp1956
g576
ag520
ag573
atRp1957
sg71
g10
((lp1958
g520
ag573
ag576
ag606
ag608
ag600
atRp1959
ssg385
(dp1960
g9
g10
((lp1961
g771
ag377
ag19
ag357
ag381
ag108
ag387
ag756
ag677
ag758
ag135
ag249
ag251
ag21
ag23
ag773
ag385
ag258
ag762
ag495
ag764
ag29
ag274
ag154
ag766
atRp1962
sg31
g10
((lp1963
g45
ag369
atRp1964
sg71
g10
((lp1965
g45
ag385
ag369
atRp1966
ssg45
(dp1967
g9
g10
((lp1968
g7
ag771
ag377
ag19
ag357
ag381
ag108
ag445
ag387
ag15
ag582
ag18
ag756
ag677
ag78
ag470
ag758
ag80
ag135
ag76
ag249
ag251
ag21
ag491
ag23
ag773
ag385
ag45
ag27
ag258
ag379
ag604
ag762
ag495
ag764
ag29
ag274
ag154
ag88
ag766
atRp1969
sg31
g10
((lp1970
g45
atRp1971
sg71
g10
((lp1972
g45
atRp1973
ssg550
(dp1974
g9
g10
((lp1975
g187
ag534
ag101
ag19
ag104
ag406
ag590
ag447
ag120
ag18
ag481
ag588
ag472
ag623
ag598
ag550
ag602
ag548
ag554
ag621
ag424
ag558
ag497
ag625
ag615
atRp1976
sg31
g10
((lp1977
g520
ag526
atRp1978
sg71
g10
((lp1979
g520
ag550
ag526
atRp1980
ssg27
(dp1981
g9
g10
((lp1982
g29
ag19
ag18
ag27
atRp1983
sg31
g10
((lp1984
g37
ag573
ag576
ag69
ag373
ag45
ag53
ag61
atRp1985
sg71
g10
((lp1986
g7
ag442
ag84
ag69
ag445
ag453
ag61
ag391
ag37
ag389
ag586
ag82
ag78
ag80
ag383
ag74
ag76
ag594
ag373
ag455
ag27
ag457
ag53
ag493
ag379
ag466
ag573
ag576
ag606
ag45
ag86
ag88
atRp1987
ssg750
(dp1988
g9
g10
((lp1989
g133
ag184
ag122
ag249
ag127
ag19
ag130
ag101
ag760
ag764
ag750
ag144
ag154
ag752
atRp1990
sg31
g10
((lp1991
g298
ag310
ag684
atRp1992
sg71
g10
((lp1993
g310
ag326
ag298
ag750
ag698
ag684
atRp1994
ssg258
(dp1995
g9
g10
((lp1996
g258
ag251
ag249
ag19
ag21
ag23
ag29
ag274
atRp1997
sg31
g10
((lp1998
g178
ag349
ag369
ag45
ag53
ag61
atRp1999
sg71
g10
((lp2000
g265
ag245
ag387
ag178
ag762
ag512
ag349
ag369
ag385
ag45
ag78
ag258
ag270
ag53
ag215
ag61
ag86
ag88
ag263
atRp2001
ssg144
(dp2002
g9
g10
((lp2003
g133
ag122
ag101
ag127
ag19
ag130
ag154
ag144
atRp2004
sg31
g10
((lp2005
g167
ag318
ag310
ag159
ag298
ag684
atRp2006
sg71
g10
((lp2007
g688
ag96
ag167
ag159
ag318
ag310
ag536
ag684
ag144
ag324
ag696
ag922
ag326
ag298
ag750
ag115
ag113
ag698
ag336
atRp2008
ssg413
(dp2009
g9
g10
((lp2010
g850
ag187
ag748
ag191
ag194
ag19
ag208
ag211
ag403
ag406
ag408
ag220
ag225
ag227
ag401
ag130
ag232
ag237
ag243
ag247
ag184
ag234
ag249
ag251
ag253
ag714
ag413
ag650
ag394
ag261
ag848
ag268
ag398
ag256
ag272
ag623
ag29
ag277
ag417
ag627
atRp2011
sg31
g10
((lp2012
g413
atRp2013
sg71
g10
((lp2014
g413
atRp2015
ssg148
(dp2016
g9
g10
((lp2017
g104
ag19
ag148
ag154
atRp2018
sg31
g10
((lp2019
g167
ag318
ag524
ag69
ag159
ag530
atRp2020
sg71
g10
((lp2021
g146
ag96
ag148
ag564
ag167
ag159
ag318
ag524
ag530
ag69
ag540
ag536
ag560
ag596
ag118
ag546
ag788
ag592
ag142
ag115
atRp2022
ssg666
(dp2023
g9
g10
((lp2024
g666
ag194
ag127
ag19
ag130
ag256
ag154
atRp2025
sg31
g10
((lp2026
g298
ag349
ag310
ag318
atRp2027
sg71
g10
((lp2028
g666
ag353
ag318
ag349
ag310
ag324
ag326
ag298
ag336
ag754
atRp2029
ssg764
(dp2030
g9
g10
((lp2031
g764
ag19
ag249
ag154
atRp2032
sg31
g10
((lp2033
g369
ag349
ag310
ag45
ag298
ag684
atRp2034
sg71
g10
((lp2035
g690
ag385
ag353
ag762
ag310
ag764
ag369
ag349
ag512
ag694
ag684
ag758
ag45
ag326
ag298
ag750
ag766
ag752
ag698
ag754
atRp2036
ssg80
(dp2037
g9
g10
((lp2038
g7
ag15
ag18
ag135
ag495
ag377
ag19
ag21
ag491
ag23
ag357
ag379
ag27
ag29
ag80
ag470
atRp2039
sg31
g10
((lp2040
g37
ag53
ag45
ag69
atRp2041
sg71
g10
((lp2042
g37
ag80
ag74
ag76
ag69
ag45
ag82
ag53
ag88
atRp2043
ssg422
(dp2044
g9
g10
((lp2045
g289
ag422
ag401
ag101
ag19
ag424
ag256
ag406
atRp2046
sg31
g10
((lp2047
g294
ag520
ag302
ag310
ag318
atRp2048
sg71
g10
((lp2049
g520
ag617
ag318
ag422
ag538
ag310
ag324
ag294
ag302
ag544
ag328
ag330
ag332
ag334
atRp2050
ssg499
(dp2051
g9
g10
((lp2052
g135
ag495
ag19
ag23
ag104
ag152
ag499
atRp2053
sg31
g10
((lp2054
g37
ag530
ag167
ag69
atRp2055
sg71
g10
((lp2056
g37
ag596
ag167
ag485
ag69
ag499
ag788
ag74
ag564
ag530
atRp2057
ssg159
(dp2058
g9
g10
((lp2059
g96
ag101
ag19
ag104
ag108
ag111
ag406
ag113
ag115
ag118
ag120
ag556
ag122
ag125
ag127
ag130
ag540
ag733
ag133
ag135
ag138
ag735
ag408
ag552
ag140
ag142
ag144
ag146
ag536
ag148
ag554
ag621
ag424
ag159
ag560
ag150
ag922
ag152
ag154
ag426
atRp2060
sg31
g10
((lp2061
g159
atRp2062
sg71
g10
((lp2063
g159
atRp2064
ssg562
(dp2065
g9
g10
((lp2066
g101
ag19
ag104
ag406
ag590
ag120
ag18
ag556
ag125
ag562
ag542
ag733
ag470
ag472
ag468
ag135
ag598
ag584
ag548
ag554
ag621
ag424
ag558
ag150
ag152
atRp2067
sg31
g10
((lp2068
g524
ag526
atRp2069
sg71
g10
((lp2070
g524
ag562
ag526
atRp2071
ssg922
(dp2072
g9
g10
((lp2073
g133
ag127
ag122
ag408
ag101
ag735
ag19
ag130
ag424
ag922
ag406
ag154
ag144
ag426
atRp2074
sg31
g10
((lp2075
g159
ag310
ag318
atRp2076
sg71
g10
((lp2077
g536
ag159
ag318
ag310
ag324
ag922
atRp2078
ssg272
(dp2079
g9
g10
((lp2080
g187
ag272
ag251
ag249
ag19
ag232
ag211
ag29
atRp2081
sg31
g10
((lp2082
g576
ag61
ag53
ag178
ag413
atRp2083
sg71
g10
((lp2084
g243
ag268
ag178
ag576
ag714
ag413
ag455
ag272
ag457
ag53
ag215
ag61
ag86
ag263
atRp2085
ssg450
(dp2086
g9
g10
((lp2087
g447
ag187
ag18
ag450
ag19
ag256
ag261
atRp2088
sg31
g10
((lp2089
g576
ag520
ag573
ag61
atRp2090
sg71
g10
((lp2091
g520
ag573
ag576
ag61
ag606
ag450
ag608
ag457
ag453
ag600
atRp2092
ssg29
(dp2093
g9
g10
((lp2094
g29
ag19
atRp2095
sg31
g10
((lp2096
g37
ag573
ag178
ag576
ag349
ag369
ag69
ag413
ag373
ag45
ag53
ag61
atRp2097
sg71
g10
((lp2098
g7
ag442
ag178
ag191
ag377
ag349
ag650
ag69
ag413
ag357
ag381
ag445
ag84
ag215
ag61
ag391
ag37
ag220
ag466
ag222
ag848
ag379
ag383
ag586
ag82
ag232
ag247
ag237
ag78
ag243
ag245
ag74
ag76
ag251
ag369
ag21
ag714
ag594
ag773
ag385
ag373
ag455
ag27
ag457
ag53
ag493
ag453
ag389
ag258
ag263
ag265
ag268
ag573
ag270
ag762
ag576
ag80
ag387
ag512
ag606
ag272
ag29
ag45
ag86
ag277
ag88
atRp2099
ssg564
(dp2100
g9
g10
((lp2101
g771
ag101
ag19
ag104
ag108
ag111
ag118
ag120
ag122
ag125
ag677
ag786
ag135
ag23
ag142
ag146
ag148
ag495
ag499
ag150
ag152
ag788
ag564
ag154
ag790
atRp2102
sg31
g10
((lp2103
g530
ag167
atRp2104
sg71
g10
((lp2105
g530
ag564
ag167
atRp2106
ssg530
(dp2107
g9
g10
((lp2108
g771
ag101
ag19
ag104
ag542
ag108
ag111
ag15
ag120
ag18
ag558
ag485
ag125
ag677
ag118
ag546
ag592
ag470
ag472
ag596
ag468
ag135
ag491
ag23
ag582
ag142
ag146
ag604
ag148
ag564
ag495
ag530
ag499
ag122
ag150
ag152
ag788
ag786
ag154
ag790
atRp2109
sg31
g10
((lp2110
g530
atRp2111
sg71
g10
((lp2112
g530
atRp2113
ssg426
(dp2114
g9
g10
((lp2115
g133
ag408
ag101
ag19
ag130
ag424
ag406
ag426
atRp2116
sg31
g10
((lp2117
g294
ag159
ag302
ag310
ag318
atRp2118
sg71
g10
((lp2119
g536
ag159
ag318
ag310
ag324
ag294
ag302
ag922
ag426
ag328
ag330
ag332
ag334
ag552
atRp2120
ss.